00000000  8816              mov [esi],dl
00000002  F1                int1
00000003  7CBD              jl 0xffffffc2
00000005  009089ECBBF2      add [eax-0xd441377],dl
0000000B  7CE8              jl 0xfffffff5
0000000D  0800              or [eax],al
0000000F  E8BB00E889        call 0x89e800cf
00000014  00EB              add bl,ch
00000016  FE                db 0xfe
00000017  60                pusha
00000018  B40E              mov ah,0xe
0000001A  8A07              mov al,[edi]
0000001C  3C00              cmp al,0x0
0000001E  7502              jnz 0x22
00000020  61                popa
00000021  C3                ret
00000022  83C301            add ebx,byte +0x1
00000025  CD10              int 0x10
00000027  EBF1              jmp short 0x1a
00000029  60                pusha
0000002A  E8EAFFB00A        call 0xab10019
0000002F  CD10              int 0x10
00000031  B00D              mov al,0xd
00000033  CD10              int 0x10
00000035  61                popa
00000036  C3                ret
00000037  52                push edx
00000038  B402              mov ah,0x2
0000003A  88F0              mov al,dh
0000003C  B500              mov ch,0x0
0000003E  B600              mov dh,0x0
00000040  B102              mov cl,0x2
00000042  CD13              int 0x13
00000044  7206              jc 0x4c
00000046  5A                pop edx
00000047  38C6              cmp dh,al
00000049  7501              jnz 0x4c
0000004B  C3                ret
0000004C  BB547CE8C5        mov ebx,0xc5e87c54
00000051  FF                db 0xff
00000052  EBFE              jmp short 0x52
00000054  44                inc esp
00000055  49                dec ecx
00000056  53                push ebx
00000057  4B                dec ebx
00000058  205245            and [edx+0x45],dl
0000005B  41                inc ecx
0000005C  44                inc esp
0000005D  204552            and [ebp+0x52],al
00000060  52                push edx
00000061  4F                dec edi
00000062  52                push edx
00000063  2100              and [eax],eax
00000065  0000              add [eax],al
00000067  0000              add [eax],al
00000069  0000              add [eax],al
0000006B  0000              add [eax],al
0000006D  FF                db 0xff
0000006E  FF00              inc dword [eax]
00000070  0000              add [eax],al
00000072  9ACF00FFFF0000    call 0x0:0xffff00cf
00000079  0092CF001700      add [edx+0x1700cf],dl
0000007F  657C00            gs jl 0x82
00000082  0060BA            add [eax-0x46],ah
00000085  00800B008A03      add [eax+0x38a000b],al
0000008B  B40F              mov ah,0xf
0000008D  3C00              cmp al,0x0
0000008F  740B              jz 0x9c
00000091  668902            mov [edx],ax
00000094  83C301            add ebx,byte +0x1
00000097  83C202            add edx,byte +0x2
0000009A  EBED              jmp short 0x89
0000009C  61                popa
0000009D  C3                ret
0000009E  FA                cli
0000009F  0F0116            lgdt [esi]
000000A2  7D7C              jnl 0x120
000000A4  0F20C0            mov eax,cr0
000000A7  6683C801          or ax,byte +0x1
000000AB  0F22C0            mov cr0,eax
000000AE  EAB37C080066B8    jmp 0xb866:0x87cb3
000000B5  1000              adc [eax],al
000000B7  8ED8              mov ds,eax
000000B9  8EC0              mov es,eax
000000BB  8ED0              mov ss,eax
000000BD  8EE0              mov fs,eax
000000BF  8EE8              mov gs,eax
000000C1  BD00000900        mov ebp,0x90000
000000C6  89EC              mov esp,ebp
000000C8  E813000000        call 0xe0
000000CD  BB3B7DE844        mov ebx,0x44e87d3b
000000D2  FF                db 0xff
000000D3  BB0010B60F        mov ebx,0xfb61000
000000D8  8A16              mov dl,[esi]
000000DA  F1                int1
000000DB  7CE8              jl 0xc5
000000DD  58                pop eax
000000DE  FFC3              inc ebx
000000E0  BB0E7D0000        mov ebx,0x7d0e
000000E5  E899FFFFFF        call 0x83
000000EA  E82195FFFF        call 0xffff9610
000000EF  EBFE              jmp short 0xef
000000F1  005374            add [ebx+0x74],dl
000000F4  61                popa
000000F5  7274              jc 0x16b
000000F7  656420696E        and [fs:ecx+0x6e],ch
000000FC  2031              and [ecx],dh
000000FE  362D62697420      ss sub eax,0x20746962
00000104  52                push edx
00000105  6561              gs popa
00000107  6C                insb
00000108  206D6F            and [ebp+0x6f],ch
0000010B  6465005375        add [gs:ebx+0x75],dl
00000110  636365            arpl [ebx+0x65],sp
00000113  7373              jnc 0x188
00000115  66756C            o16 jnz 0x184
00000118  6C                insb
00000119  7920              jns 0x13b
0000011B  6C                insb
0000011C  61                popa
0000011D  6E                outsb
0000011E  64656420696E      and [fs:ecx+0x6e],ch
00000124  2033              and [ebx],dh
00000126  322D62697420      xor ch,[dword 0x20746962]
0000012C  50                push eax
0000012D  726F              jc 0x19e
0000012F  7465              jz 0x196
00000131  63746564          arpl [ebp+0x64],si
00000135  204D6F            and [ebp+0x6f],cl
00000138  6465006C6F61      add [gs:edi+ebp*2+0x61],ch
0000013E  64696E67206B6572  imul ebp,[fs:esi+0x67],dword 0x72656b20
00000146  6E                outsb
00000147  656C              gs insb
00000149  20696E            and [ecx+0x6e],ch
0000014C  746F              jz 0x1bd
0000014E  206D65            and [ebp+0x65],ch
00000151  6D                insd
00000152  6F                outsd
00000153  7279              jc 0x1ce
00000155  2E0000            add [cs:eax],al
00000158  0000              add [eax],al
0000015A  0000              add [eax],al
0000015C  0000              add [eax],al
0000015E  0000              add [eax],al
00000160  0000              add [eax],al
00000162  0000              add [eax],al
00000164  0000              add [eax],al
00000166  0000              add [eax],al
00000168  0000              add [eax],al
0000016A  0000              add [eax],al
0000016C  0000              add [eax],al
0000016E  0000              add [eax],al
00000170  0000              add [eax],al
00000172  0000              add [eax],al
00000174  0000              add [eax],al
00000176  0000              add [eax],al
00000178  0000              add [eax],al
0000017A  0000              add [eax],al
0000017C  0000              add [eax],al
0000017E  0000              add [eax],al
00000180  0000              add [eax],al
00000182  0000              add [eax],al
00000184  0000              add [eax],al
00000186  0000              add [eax],al
00000188  0000              add [eax],al
0000018A  0000              add [eax],al
0000018C  0000              add [eax],al
0000018E  0000              add [eax],al
00000190  0000              add [eax],al
00000192  0000              add [eax],al
00000194  0000              add [eax],al
00000196  0000              add [eax],al
00000198  0000              add [eax],al
0000019A  0000              add [eax],al
0000019C  0000              add [eax],al
0000019E  0000              add [eax],al
000001A0  0000              add [eax],al
000001A2  0000              add [eax],al
000001A4  0000              add [eax],al
000001A6  0000              add [eax],al
000001A8  0000              add [eax],al
000001AA  0000              add [eax],al
000001AC  0000              add [eax],al
000001AE  0000              add [eax],al
000001B0  0000              add [eax],al
000001B2  0000              add [eax],al
000001B4  0000              add [eax],al
000001B6  0000              add [eax],al
000001B8  0000              add [eax],al
000001BA  0000              add [eax],al
000001BC  0000              add [eax],al
000001BE  0000              add [eax],al
000001C0  0000              add [eax],al
000001C2  0000              add [eax],al
000001C4  0000              add [eax],al
000001C6  0000              add [eax],al
000001C8  0000              add [eax],al
000001CA  0000              add [eax],al
000001CC  0000              add [eax],al
000001CE  0000              add [eax],al
000001D0  0000              add [eax],al
000001D2  0000              add [eax],al
000001D4  0000              add [eax],al
000001D6  0000              add [eax],al
000001D8  0000              add [eax],al
000001DA  0000              add [eax],al
000001DC  0000              add [eax],al
000001DE  0000              add [eax],al
000001E0  0000              add [eax],al
000001E2  0000              add [eax],al
000001E4  0000              add [eax],al
000001E6  0000              add [eax],al
000001E8  0000              add [eax],al
000001EA  0000              add [eax],al
000001EC  0000              add [eax],al
000001EE  0000              add [eax],al
000001F0  0000              add [eax],al
000001F2  0000              add [eax],al
000001F4  0000              add [eax],al
000001F6  0000              add [eax],al
000001F8  0000              add [eax],al
000001FA  0000              add [eax],al
000001FC  0000              add [eax],al
000001FE  55                push ebp
000001FF  AA                stosb
00000200  7F45              jg 0x247
00000202  4C                dec esp
00000203  46                inc esi
00000204  0101              add [ecx],eax
00000206  0100              add [eax],eax
00000208  0000              add [eax],al
0000020A  0000              add [eax],al
0000020C  0000              add [eax],al
0000020E  0000              add [eax],al
00000210  0200              add al,[eax]
00000212  0300              add eax,[eax]
00000214  0100              add [eax],eax
00000216  0000              add [eax],al
00000218  0110              add [eax],edx
0000021A  0000              add [eax],al
0000021C  3400              xor al,0x0
0000021E  0000              add [eax],al
00000220  1033              adc [ebx],dh
00000222  0000              add [eax],al
00000224  0000              add [eax],al
00000226  0000              add [eax],al
00000228  3400              xor al,0x0
0000022A  2000              and [eax],al
0000022C  06                push es
0000022D  0028              add [eax],ch
0000022F  0008              add [eax],cl
00000231  0007              add [edi],al
00000233  0001              add [ecx],al
00000235  0000              add [eax],al
00000237  0000              add [eax],al
00000239  0000              add [eax],al
0000023B  0000              add [eax],al
0000023D  0000              add [eax],al
0000023F  0000              add [eax],al
00000241  0000              add [eax],al
00000243  00F4              add ah,dh
00000245  0000              add [eax],al
00000247  00F4              add ah,dh
00000249  0000              add [eax],al
0000024B  000400            add [eax+eax],al
0000024E  0000              add [eax],al
00000250  0010              add [eax],dl
00000252  0000              add [eax],al
00000254  0100              add [eax],eax
00000256  0000              add [eax],al
00000258  0110              add [eax],edx
0000025A  0000              add [eax],al
0000025C  0110              add [eax],edx
0000025E  0000              add [eax],al
00000260  0110              add [eax],edx
00000262  0000              add [eax],al
00000264  0D0500000D        or eax,0xd000005
00000269  0500000500        add eax,0x50000
0000026E  0000              add [eax],al
00000270  0010              add [eax],dl
00000272  0000              add [eax],al
00000274  0100              add [eax],eax
00000276  0000              add [eax],al
00000278  0020              add [eax],ah
0000027A  0000              add [eax],al
0000027C  0020              add [eax],ah
0000027E  0000              add [eax],al
00000280  0020              add [eax],ah
00000282  0000              add [eax],al
00000284  1802              sbb [edx],al
00000286  0000              add [eax],al
00000288  1802              sbb [edx],al
0000028A  0000              add [eax],al
0000028C  0400              add al,0x0
0000028E  0000              add [eax],al
00000290  0010              add [eax],dl
00000292  0000              add [eax],al
00000294  0100              add [eax],eax
00000296  0000              add [eax],al
00000298  F4                hlt
00000299  2F                das
0000029A  0000              add [eax],al
0000029C  F4                hlt
0000029D  3F                aas
0000029E  0000              add [eax],al
000002A0  F4                hlt
000002A1  3F                aas
000002A2  0000              add [eax],al
000002A4  0C00              or al,0x0
000002A6  0000              add [eax],al
000002A8  0C00              or al,0x0
000002AA  0000              add [eax],al
000002AC  06                push es
000002AD  0000              add [eax],al
000002AF  0000              add [eax],al
000002B1  1000              adc [eax],al
000002B3  0051E5            add [ecx-0x1b],dl
000002B6  7464              jz 0x31c
000002B8  0000              add [eax],al
000002BA  0000              add [eax],al
000002BC  0000              add [eax],al
000002BE  0000              add [eax],al
000002C0  0000              add [eax],al
000002C2  0000              add [eax],al
000002C4  0000              add [eax],al
000002C6  0000              add [eax],al
000002C8  0000              add [eax],al
000002CA  0000              add [eax],al
000002CC  06                push es
000002CD  0000              add [eax],al
000002CF  0010              add [eax],dl
000002D1  0000              add [eax],al
000002D3  0052E5            add [edx-0x1b],dl
000002D6  7464              jz 0x33c
000002D8  F4                hlt
000002D9  2F                das
000002DA  0000              add [eax],al
000002DC  F4                hlt
000002DD  3F                aas
000002DE  0000              add [eax],al
000002E0  F4                hlt
000002E1  3F                aas
000002E2  0000              add [eax],al
000002E4  0C00              or al,0x0
000002E6  0000              add [eax],al
000002E8  0C00              or al,0x0
000002EA  0000              add [eax],al
000002EC  0400              add al,0x0
000002EE  0000              add [eax],al
000002F0  0100              add [eax],eax
000002F2  0000              add [eax],al
000002F4  0000              add [eax],al
000002F6  0000              add [eax],al
000002F8  0000              add [eax],al
000002FA  0000              add [eax],al
000002FC  0000              add [eax],al
000002FE  0000              add [eax],al
00000300  0000              add [eax],al
00000302  0000              add [eax],al
00000304  0000              add [eax],al
00000306  0000              add [eax],al
00000308  0000              add [eax],al
0000030A  0000              add [eax],al
0000030C  0000              add [eax],al
0000030E  0000              add [eax],al
00000310  0000              add [eax],al
00000312  0000              add [eax],al
00000314  0000              add [eax],al
00000316  0000              add [eax],al
00000318  0000              add [eax],al
0000031A  0000              add [eax],al
0000031C  0000              add [eax],al
0000031E  0000              add [eax],al
00000320  0000              add [eax],al
00000322  0000              add [eax],al
00000324  0000              add [eax],al
00000326  0000              add [eax],al
00000328  0000              add [eax],al
0000032A  0000              add [eax],al
0000032C  0000              add [eax],al
0000032E  0000              add [eax],al
00000330  0000              add [eax],al
00000332  0000              add [eax],al
00000334  0000              add [eax],al
00000336  0000              add [eax],al
00000338  0000              add [eax],al
0000033A  0000              add [eax],al
0000033C  0000              add [eax],al
0000033E  0000              add [eax],al
00000340  0000              add [eax],al
00000342  0000              add [eax],al
00000344  0000              add [eax],al
00000346  0000              add [eax],al
00000348  0000              add [eax],al
0000034A  0000              add [eax],al
0000034C  0000              add [eax],al
0000034E  0000              add [eax],al
00000350  0000              add [eax],al
00000352  0000              add [eax],al
00000354  0000              add [eax],al
00000356  0000              add [eax],al
00000358  0000              add [eax],al
0000035A  0000              add [eax],al
0000035C  0000              add [eax],al
0000035E  0000              add [eax],al
00000360  0000              add [eax],al
00000362  0000              add [eax],al
00000364  0000              add [eax],al
00000366  0000              add [eax],al
00000368  0000              add [eax],al
0000036A  0000              add [eax],al
0000036C  0000              add [eax],al
0000036E  0000              add [eax],al
00000370  0000              add [eax],al
00000372  0000              add [eax],al
00000374  0000              add [eax],al
00000376  0000              add [eax],al
00000378  0000              add [eax],al
0000037A  0000              add [eax],al
0000037C  0000              add [eax],al
0000037E  0000              add [eax],al
00000380  0000              add [eax],al
00000382  0000              add [eax],al
00000384  0000              add [eax],al
00000386  0000              add [eax],al
00000388  0000              add [eax],al
0000038A  0000              add [eax],al
0000038C  0000              add [eax],al
0000038E  0000              add [eax],al
00000390  0000              add [eax],al
00000392  0000              add [eax],al
00000394  0000              add [eax],al
00000396  0000              add [eax],al
00000398  0000              add [eax],al
0000039A  0000              add [eax],al
0000039C  0000              add [eax],al
0000039E  0000              add [eax],al
000003A0  0000              add [eax],al
000003A2  0000              add [eax],al
000003A4  0000              add [eax],al
000003A6  0000              add [eax],al
000003A8  0000              add [eax],al
000003AA  0000              add [eax],al
000003AC  0000              add [eax],al
000003AE  0000              add [eax],al
000003B0  0000              add [eax],al
000003B2  0000              add [eax],al
000003B4  0000              add [eax],al
000003B6  0000              add [eax],al
000003B8  0000              add [eax],al
000003BA  0000              add [eax],al
000003BC  0000              add [eax],al
000003BE  0000              add [eax],al
000003C0  0000              add [eax],al
000003C2  0000              add [eax],al
000003C4  0000              add [eax],al
000003C6  0000              add [eax],al
000003C8  0000              add [eax],al
000003CA  0000              add [eax],al
000003CC  0000              add [eax],al
000003CE  0000              add [eax],al
000003D0  0000              add [eax],al
000003D2  0000              add [eax],al
000003D4  0000              add [eax],al
000003D6  0000              add [eax],al
000003D8  0000              add [eax],al
000003DA  0000              add [eax],al
000003DC  0000              add [eax],al
000003DE  0000              add [eax],al
000003E0  0000              add [eax],al
000003E2  0000              add [eax],al
000003E4  0000              add [eax],al
000003E6  0000              add [eax],al
000003E8  0000              add [eax],al
000003EA  0000              add [eax],al
000003EC  0000              add [eax],al
000003EE  0000              add [eax],al
000003F0  0000              add [eax],al
000003F2  0000              add [eax],al
000003F4  0000              add [eax],al
000003F6  0000              add [eax],al
000003F8  0000              add [eax],al
000003FA  0000              add [eax],al
000003FC  0000              add [eax],al
000003FE  0000              add [eax],al
00000400  0000              add [eax],al
00000402  0000              add [eax],al
00000404  0000              add [eax],al
00000406  0000              add [eax],al
00000408  0000              add [eax],al
0000040A  0000              add [eax],al
0000040C  0000              add [eax],al
0000040E  0000              add [eax],al
00000410  0000              add [eax],al
00000412  0000              add [eax],al
00000414  0000              add [eax],al
00000416  0000              add [eax],al
00000418  0000              add [eax],al
0000041A  0000              add [eax],al
0000041C  0000              add [eax],al
0000041E  0000              add [eax],al
00000420  0000              add [eax],al
00000422  0000              add [eax],al
00000424  0000              add [eax],al
00000426  0000              add [eax],al
00000428  0000              add [eax],al
0000042A  0000              add [eax],al
0000042C  0000              add [eax],al
0000042E  0000              add [eax],al
00000430  0000              add [eax],al
00000432  0000              add [eax],al
00000434  0000              add [eax],al
00000436  0000              add [eax],al
00000438  0000              add [eax],al
0000043A  0000              add [eax],al
0000043C  0000              add [eax],al
0000043E  0000              add [eax],al
00000440  0000              add [eax],al
00000442  0000              add [eax],al
00000444  0000              add [eax],al
00000446  0000              add [eax],al
00000448  0000              add [eax],al
0000044A  0000              add [eax],al
0000044C  0000              add [eax],al
0000044E  0000              add [eax],al
00000450  0000              add [eax],al
00000452  0000              add [eax],al
00000454  0000              add [eax],al
00000456  0000              add [eax],al
00000458  0000              add [eax],al
0000045A  0000              add [eax],al
0000045C  0000              add [eax],al
0000045E  0000              add [eax],al
00000460  0000              add [eax],al
00000462  0000              add [eax],al
00000464  0000              add [eax],al
00000466  0000              add [eax],al
00000468  0000              add [eax],al
0000046A  0000              add [eax],al
0000046C  0000              add [eax],al
0000046E  0000              add [eax],al
00000470  0000              add [eax],al
00000472  0000              add [eax],al
00000474  0000              add [eax],al
00000476  0000              add [eax],al
00000478  0000              add [eax],al
0000047A  0000              add [eax],al
0000047C  0000              add [eax],al
0000047E  0000              add [eax],al
00000480  0000              add [eax],al
00000482  0000              add [eax],al
00000484  0000              add [eax],al
00000486  0000              add [eax],al
00000488  0000              add [eax],al
0000048A  0000              add [eax],al
0000048C  0000              add [eax],al
0000048E  0000              add [eax],al
00000490  0000              add [eax],al
00000492  0000              add [eax],al
00000494  0000              add [eax],al
00000496  0000              add [eax],al
00000498  0000              add [eax],al
0000049A  0000              add [eax],al
0000049C  0000              add [eax],al
0000049E  0000              add [eax],al
000004A0  0000              add [eax],al
000004A2  0000              add [eax],al
000004A4  0000              add [eax],al
000004A6  0000              add [eax],al
000004A8  0000              add [eax],al
000004AA  0000              add [eax],al
000004AC  0000              add [eax],al
000004AE  0000              add [eax],al
000004B0  0000              add [eax],al
000004B2  0000              add [eax],al
000004B4  0000              add [eax],al
000004B6  0000              add [eax],al
000004B8  0000              add [eax],al
000004BA  0000              add [eax],al
000004BC  0000              add [eax],al
000004BE  0000              add [eax],al
000004C0  0000              add [eax],al
000004C2  0000              add [eax],al
000004C4  0000              add [eax],al
000004C6  0000              add [eax],al
000004C8  0000              add [eax],al
000004CA  0000              add [eax],al
000004CC  0000              add [eax],al
000004CE  0000              add [eax],al
000004D0  0000              add [eax],al
000004D2  0000              add [eax],al
000004D4  0000              add [eax],al
000004D6  0000              add [eax],al
000004D8  0000              add [eax],al
000004DA  0000              add [eax],al
000004DC  0000              add [eax],al
000004DE  0000              add [eax],al
000004E0  0000              add [eax],al
000004E2  0000              add [eax],al
000004E4  0000              add [eax],al
000004E6  0000              add [eax],al
000004E8  0000              add [eax],al
000004EA  0000              add [eax],al
000004EC  0000              add [eax],al
000004EE  0000              add [eax],al
000004F0  0000              add [eax],al
000004F2  0000              add [eax],al
000004F4  0000              add [eax],al
000004F6  0000              add [eax],al
000004F8  0000              add [eax],al
000004FA  0000              add [eax],al
000004FC  0000              add [eax],al
000004FE  0000              add [eax],al
00000500  0000              add [eax],al
00000502  0000              add [eax],al
00000504  0000              add [eax],al
00000506  0000              add [eax],al
00000508  0000              add [eax],al
0000050A  0000              add [eax],al
0000050C  0000              add [eax],al
0000050E  0000              add [eax],al
00000510  0000              add [eax],al
00000512  0000              add [eax],al
00000514  0000              add [eax],al
00000516  0000              add [eax],al
00000518  0000              add [eax],al
0000051A  0000              add [eax],al
0000051C  0000              add [eax],al
0000051E  0000              add [eax],al
00000520  0000              add [eax],al
00000522  0000              add [eax],al
00000524  0000              add [eax],al
00000526  0000              add [eax],al
00000528  0000              add [eax],al
0000052A  0000              add [eax],al
0000052C  0000              add [eax],al
0000052E  0000              add [eax],al
00000530  0000              add [eax],al
00000532  0000              add [eax],al
00000534  0000              add [eax],al
00000536  0000              add [eax],al
00000538  0000              add [eax],al
0000053A  0000              add [eax],al
0000053C  0000              add [eax],al
0000053E  0000              add [eax],al
00000540  0000              add [eax],al
00000542  0000              add [eax],al
00000544  0000              add [eax],al
00000546  0000              add [eax],al
00000548  0000              add [eax],al
0000054A  0000              add [eax],al
0000054C  0000              add [eax],al
0000054E  0000              add [eax],al
00000550  0000              add [eax],al
00000552  0000              add [eax],al
00000554  0000              add [eax],al
00000556  0000              add [eax],al
00000558  0000              add [eax],al
0000055A  0000              add [eax],al
0000055C  0000              add [eax],al
0000055E  0000              add [eax],al
00000560  0000              add [eax],al
00000562  0000              add [eax],al
00000564  0000              add [eax],al
00000566  0000              add [eax],al
00000568  0000              add [eax],al
0000056A  0000              add [eax],al
0000056C  0000              add [eax],al
0000056E  0000              add [eax],al
00000570  0000              add [eax],al
00000572  0000              add [eax],al
00000574  0000              add [eax],al
00000576  0000              add [eax],al
00000578  0000              add [eax],al
0000057A  0000              add [eax],al
0000057C  0000              add [eax],al
0000057E  0000              add [eax],al
00000580  0000              add [eax],al
00000582  0000              add [eax],al
00000584  0000              add [eax],al
00000586  0000              add [eax],al
00000588  0000              add [eax],al
0000058A  0000              add [eax],al
0000058C  0000              add [eax],al
0000058E  0000              add [eax],al
00000590  0000              add [eax],al
00000592  0000              add [eax],al
00000594  0000              add [eax],al
00000596  0000              add [eax],al
00000598  0000              add [eax],al
0000059A  0000              add [eax],al
0000059C  0000              add [eax],al
0000059E  0000              add [eax],al
000005A0  0000              add [eax],al
000005A2  0000              add [eax],al
000005A4  0000              add [eax],al
000005A6  0000              add [eax],al
000005A8  0000              add [eax],al
000005AA  0000              add [eax],al
000005AC  0000              add [eax],al
000005AE  0000              add [eax],al
000005B0  0000              add [eax],al
000005B2  0000              add [eax],al
000005B4  0000              add [eax],al
000005B6  0000              add [eax],al
000005B8  0000              add [eax],al
000005BA  0000              add [eax],al
000005BC  0000              add [eax],al
000005BE  0000              add [eax],al
000005C0  0000              add [eax],al
000005C2  0000              add [eax],al
000005C4  0000              add [eax],al
000005C6  0000              add [eax],al
000005C8  0000              add [eax],al
000005CA  0000              add [eax],al
000005CC  0000              add [eax],al
000005CE  0000              add [eax],al
000005D0  0000              add [eax],al
000005D2  0000              add [eax],al
000005D4  0000              add [eax],al
000005D6  0000              add [eax],al
000005D8  0000              add [eax],al
000005DA  0000              add [eax],al
000005DC  0000              add [eax],al
000005DE  0000              add [eax],al
000005E0  0000              add [eax],al
000005E2  0000              add [eax],al
000005E4  0000              add [eax],al
000005E6  0000              add [eax],al
000005E8  0000              add [eax],al
000005EA  0000              add [eax],al
000005EC  0000              add [eax],al
000005EE  0000              add [eax],al
000005F0  0000              add [eax],al
000005F2  0000              add [eax],al
000005F4  0000              add [eax],al
000005F6  0000              add [eax],al
000005F8  0000              add [eax],al
000005FA  0000              add [eax],al
000005FC  0000              add [eax],al
000005FE  0000              add [eax],al
00000600  0000              add [eax],al
00000602  0000              add [eax],al
00000604  0000              add [eax],al
00000606  0000              add [eax],al
00000608  0000              add [eax],al
0000060A  0000              add [eax],al
0000060C  0000              add [eax],al
0000060E  0000              add [eax],al
00000610  0000              add [eax],al
00000612  0000              add [eax],al
00000614  0000              add [eax],al
00000616  0000              add [eax],al
00000618  0000              add [eax],al
0000061A  0000              add [eax],al
0000061C  0000              add [eax],al
0000061E  0000              add [eax],al
00000620  0000              add [eax],al
00000622  0000              add [eax],al
00000624  0000              add [eax],al
00000626  0000              add [eax],al
00000628  0000              add [eax],al
0000062A  0000              add [eax],al
0000062C  0000              add [eax],al
0000062E  0000              add [eax],al
00000630  0000              add [eax],al
00000632  0000              add [eax],al
00000634  0000              add [eax],al
00000636  0000              add [eax],al
00000638  0000              add [eax],al
0000063A  0000              add [eax],al
0000063C  0000              add [eax],al
0000063E  0000              add [eax],al
00000640  0000              add [eax],al
00000642  0000              add [eax],al
00000644  0000              add [eax],al
00000646  0000              add [eax],al
00000648  0000              add [eax],al
0000064A  0000              add [eax],al
0000064C  0000              add [eax],al
0000064E  0000              add [eax],al
00000650  0000              add [eax],al
00000652  0000              add [eax],al
00000654  0000              add [eax],al
00000656  0000              add [eax],al
00000658  0000              add [eax],al
0000065A  0000              add [eax],al
0000065C  0000              add [eax],al
0000065E  0000              add [eax],al
00000660  0000              add [eax],al
00000662  0000              add [eax],al
00000664  0000              add [eax],al
00000666  0000              add [eax],al
00000668  0000              add [eax],al
0000066A  0000              add [eax],al
0000066C  0000              add [eax],al
0000066E  0000              add [eax],al
00000670  0000              add [eax],al
00000672  0000              add [eax],al
00000674  0000              add [eax],al
00000676  0000              add [eax],al
00000678  0000              add [eax],al
0000067A  0000              add [eax],al
0000067C  0000              add [eax],al
0000067E  0000              add [eax],al
00000680  0000              add [eax],al
00000682  0000              add [eax],al
00000684  0000              add [eax],al
00000686  0000              add [eax],al
00000688  0000              add [eax],al
0000068A  0000              add [eax],al
0000068C  0000              add [eax],al
0000068E  0000              add [eax],al
00000690  0000              add [eax],al
00000692  0000              add [eax],al
00000694  0000              add [eax],al
00000696  0000              add [eax],al
00000698  0000              add [eax],al
0000069A  0000              add [eax],al
0000069C  0000              add [eax],al
0000069E  0000              add [eax],al
000006A0  0000              add [eax],al
000006A2  0000              add [eax],al
000006A4  0000              add [eax],al
000006A6  0000              add [eax],al
000006A8  0000              add [eax],al
000006AA  0000              add [eax],al
000006AC  0000              add [eax],al
000006AE  0000              add [eax],al
000006B0  0000              add [eax],al
000006B2  0000              add [eax],al
000006B4  0000              add [eax],al
000006B6  0000              add [eax],al
000006B8  0000              add [eax],al
000006BA  0000              add [eax],al
000006BC  0000              add [eax],al
000006BE  0000              add [eax],al
000006C0  0000              add [eax],al
000006C2  0000              add [eax],al
000006C4  0000              add [eax],al
000006C6  0000              add [eax],al
000006C8  0000              add [eax],al
000006CA  0000              add [eax],al
000006CC  0000              add [eax],al
000006CE  0000              add [eax],al
000006D0  0000              add [eax],al
000006D2  0000              add [eax],al
000006D4  0000              add [eax],al
000006D6  0000              add [eax],al
000006D8  0000              add [eax],al
000006DA  0000              add [eax],al
000006DC  0000              add [eax],al
000006DE  0000              add [eax],al
000006E0  0000              add [eax],al
000006E2  0000              add [eax],al
000006E4  0000              add [eax],al
000006E6  0000              add [eax],al
000006E8  0000              add [eax],al
000006EA  0000              add [eax],al
000006EC  0000              add [eax],al
000006EE  0000              add [eax],al
000006F0  0000              add [eax],al
000006F2  0000              add [eax],al
000006F4  0000              add [eax],al
000006F6  0000              add [eax],al
000006F8  0000              add [eax],al
000006FA  0000              add [eax],al
000006FC  0000              add [eax],al
000006FE  0000              add [eax],al
00000700  0000              add [eax],al
00000702  0000              add [eax],al
00000704  0000              add [eax],al
00000706  0000              add [eax],al
00000708  0000              add [eax],al
0000070A  0000              add [eax],al
0000070C  0000              add [eax],al
0000070E  0000              add [eax],al
00000710  0000              add [eax],al
00000712  0000              add [eax],al
00000714  0000              add [eax],al
00000716  0000              add [eax],al
00000718  0000              add [eax],al
0000071A  0000              add [eax],al
0000071C  0000              add [eax],al
0000071E  0000              add [eax],al
00000720  0000              add [eax],al
00000722  0000              add [eax],al
00000724  0000              add [eax],al
00000726  0000              add [eax],al
00000728  0000              add [eax],al
0000072A  0000              add [eax],al
0000072C  0000              add [eax],al
0000072E  0000              add [eax],al
00000730  0000              add [eax],al
00000732  0000              add [eax],al
00000734  0000              add [eax],al
00000736  0000              add [eax],al
00000738  0000              add [eax],al
0000073A  0000              add [eax],al
0000073C  0000              add [eax],al
0000073E  0000              add [eax],al
00000740  0000              add [eax],al
00000742  0000              add [eax],al
00000744  0000              add [eax],al
00000746  0000              add [eax],al
00000748  0000              add [eax],al
0000074A  0000              add [eax],al
0000074C  0000              add [eax],al
0000074E  0000              add [eax],al
00000750  0000              add [eax],al
00000752  0000              add [eax],al
00000754  0000              add [eax],al
00000756  0000              add [eax],al
00000758  0000              add [eax],al
0000075A  0000              add [eax],al
0000075C  0000              add [eax],al
0000075E  0000              add [eax],al
00000760  0000              add [eax],al
00000762  0000              add [eax],al
00000764  0000              add [eax],al
00000766  0000              add [eax],al
00000768  0000              add [eax],al
0000076A  0000              add [eax],al
0000076C  0000              add [eax],al
0000076E  0000              add [eax],al
00000770  0000              add [eax],al
00000772  0000              add [eax],al
00000774  0000              add [eax],al
00000776  0000              add [eax],al
00000778  0000              add [eax],al
0000077A  0000              add [eax],al
0000077C  0000              add [eax],al
0000077E  0000              add [eax],al
00000780  0000              add [eax],al
00000782  0000              add [eax],al
00000784  0000              add [eax],al
00000786  0000              add [eax],al
00000788  0000              add [eax],al
0000078A  0000              add [eax],al
0000078C  0000              add [eax],al
0000078E  0000              add [eax],al
00000790  0000              add [eax],al
00000792  0000              add [eax],al
00000794  0000              add [eax],al
00000796  0000              add [eax],al
00000798  0000              add [eax],al
0000079A  0000              add [eax],al
0000079C  0000              add [eax],al
0000079E  0000              add [eax],al
000007A0  0000              add [eax],al
000007A2  0000              add [eax],al
000007A4  0000              add [eax],al
000007A6  0000              add [eax],al
000007A8  0000              add [eax],al
000007AA  0000              add [eax],al
000007AC  0000              add [eax],al
000007AE  0000              add [eax],al
000007B0  0000              add [eax],al
000007B2  0000              add [eax],al
000007B4  0000              add [eax],al
000007B6  0000              add [eax],al
000007B8  0000              add [eax],al
000007BA  0000              add [eax],al
000007BC  0000              add [eax],al
000007BE  0000              add [eax],al
000007C0  0000              add [eax],al
000007C2  0000              add [eax],al
000007C4  0000              add [eax],al
000007C6  0000              add [eax],al
000007C8  0000              add [eax],al
000007CA  0000              add [eax],al
000007CC  0000              add [eax],al
000007CE  0000              add [eax],al
000007D0  0000              add [eax],al
000007D2  0000              add [eax],al
000007D4  0000              add [eax],al
000007D6  0000              add [eax],al
000007D8  0000              add [eax],al
000007DA  0000              add [eax],al
000007DC  0000              add [eax],al
000007DE  0000              add [eax],al
000007E0  0000              add [eax],al
000007E2  0000              add [eax],al
000007E4  0000              add [eax],al
000007E6  0000              add [eax],al
000007E8  0000              add [eax],al
000007EA  0000              add [eax],al
000007EC  0000              add [eax],al
000007EE  0000              add [eax],al
000007F0  0000              add [eax],al
000007F2  0000              add [eax],al
000007F4  0000              add [eax],al
000007F6  0000              add [eax],al
000007F8  0000              add [eax],al
000007FA  0000              add [eax],al
000007FC  0000              add [eax],al
000007FE  0000              add [eax],al
00000800  0000              add [eax],al
00000802  0000              add [eax],al
00000804  0000              add [eax],al
00000806  0000              add [eax],al
00000808  0000              add [eax],al
0000080A  0000              add [eax],al
0000080C  0000              add [eax],al
0000080E  0000              add [eax],al
00000810  0000              add [eax],al
00000812  0000              add [eax],al
00000814  0000              add [eax],al
00000816  0000              add [eax],al
00000818  0000              add [eax],al
0000081A  0000              add [eax],al
0000081C  0000              add [eax],al
0000081E  0000              add [eax],al
00000820  0000              add [eax],al
00000822  0000              add [eax],al
00000824  0000              add [eax],al
00000826  0000              add [eax],al
00000828  0000              add [eax],al
0000082A  0000              add [eax],al
0000082C  0000              add [eax],al
0000082E  0000              add [eax],al
00000830  0000              add [eax],al
00000832  0000              add [eax],al
00000834  0000              add [eax],al
00000836  0000              add [eax],al
00000838  0000              add [eax],al
0000083A  0000              add [eax],al
0000083C  0000              add [eax],al
0000083E  0000              add [eax],al
00000840  0000              add [eax],al
00000842  0000              add [eax],al
00000844  0000              add [eax],al
00000846  0000              add [eax],al
00000848  0000              add [eax],al
0000084A  0000              add [eax],al
0000084C  0000              add [eax],al
0000084E  0000              add [eax],al
00000850  0000              add [eax],al
00000852  0000              add [eax],al
00000854  0000              add [eax],al
00000856  0000              add [eax],al
00000858  0000              add [eax],al
0000085A  0000              add [eax],al
0000085C  0000              add [eax],al
0000085E  0000              add [eax],al
00000860  0000              add [eax],al
00000862  0000              add [eax],al
00000864  0000              add [eax],al
00000866  0000              add [eax],al
00000868  0000              add [eax],al
0000086A  0000              add [eax],al
0000086C  0000              add [eax],al
0000086E  0000              add [eax],al
00000870  0000              add [eax],al
00000872  0000              add [eax],al
00000874  0000              add [eax],al
00000876  0000              add [eax],al
00000878  0000              add [eax],al
0000087A  0000              add [eax],al
0000087C  0000              add [eax],al
0000087E  0000              add [eax],al
00000880  0000              add [eax],al
00000882  0000              add [eax],al
00000884  0000              add [eax],al
00000886  0000              add [eax],al
00000888  0000              add [eax],al
0000088A  0000              add [eax],al
0000088C  0000              add [eax],al
0000088E  0000              add [eax],al
00000890  0000              add [eax],al
00000892  0000              add [eax],al
00000894  0000              add [eax],al
00000896  0000              add [eax],al
00000898  0000              add [eax],al
0000089A  0000              add [eax],al
0000089C  0000              add [eax],al
0000089E  0000              add [eax],al
000008A0  0000              add [eax],al
000008A2  0000              add [eax],al
000008A4  0000              add [eax],al
000008A6  0000              add [eax],al
000008A8  0000              add [eax],al
000008AA  0000              add [eax],al
000008AC  0000              add [eax],al
000008AE  0000              add [eax],al
000008B0  0000              add [eax],al
000008B2  0000              add [eax],al
000008B4  0000              add [eax],al
000008B6  0000              add [eax],al
000008B8  0000              add [eax],al
000008BA  0000              add [eax],al
000008BC  0000              add [eax],al
000008BE  0000              add [eax],al
000008C0  0000              add [eax],al
000008C2  0000              add [eax],al
000008C4  0000              add [eax],al
000008C6  0000              add [eax],al
000008C8  0000              add [eax],al
000008CA  0000              add [eax],al
000008CC  0000              add [eax],al
000008CE  0000              add [eax],al
000008D0  0000              add [eax],al
000008D2  0000              add [eax],al
000008D4  0000              add [eax],al
000008D6  0000              add [eax],al
000008D8  0000              add [eax],al
000008DA  0000              add [eax],al
000008DC  0000              add [eax],al
000008DE  0000              add [eax],al
000008E0  0000              add [eax],al
000008E2  0000              add [eax],al
000008E4  0000              add [eax],al
000008E6  0000              add [eax],al
000008E8  0000              add [eax],al
000008EA  0000              add [eax],al
000008EC  0000              add [eax],al
000008EE  0000              add [eax],al
000008F0  0000              add [eax],al
000008F2  0000              add [eax],al
000008F4  0000              add [eax],al
000008F6  0000              add [eax],al
000008F8  0000              add [eax],al
000008FA  0000              add [eax],al
000008FC  0000              add [eax],al
000008FE  0000              add [eax],al
00000900  0000              add [eax],al
00000902  0000              add [eax],al
00000904  0000              add [eax],al
00000906  0000              add [eax],al
00000908  0000              add [eax],al
0000090A  0000              add [eax],al
0000090C  0000              add [eax],al
0000090E  0000              add [eax],al
00000910  0000              add [eax],al
00000912  0000              add [eax],al
00000914  0000              add [eax],al
00000916  0000              add [eax],al
00000918  0000              add [eax],al
0000091A  0000              add [eax],al
0000091C  0000              add [eax],al
0000091E  0000              add [eax],al
00000920  0000              add [eax],al
00000922  0000              add [eax],al
00000924  0000              add [eax],al
00000926  0000              add [eax],al
00000928  0000              add [eax],al
0000092A  0000              add [eax],al
0000092C  0000              add [eax],al
0000092E  0000              add [eax],al
00000930  0000              add [eax],al
00000932  0000              add [eax],al
00000934  0000              add [eax],al
00000936  0000              add [eax],al
00000938  0000              add [eax],al
0000093A  0000              add [eax],al
0000093C  0000              add [eax],al
0000093E  0000              add [eax],al
00000940  0000              add [eax],al
00000942  0000              add [eax],al
00000944  0000              add [eax],al
00000946  0000              add [eax],al
00000948  0000              add [eax],al
0000094A  0000              add [eax],al
0000094C  0000              add [eax],al
0000094E  0000              add [eax],al
00000950  0000              add [eax],al
00000952  0000              add [eax],al
00000954  0000              add [eax],al
00000956  0000              add [eax],al
00000958  0000              add [eax],al
0000095A  0000              add [eax],al
0000095C  0000              add [eax],al
0000095E  0000              add [eax],al
00000960  0000              add [eax],al
00000962  0000              add [eax],al
00000964  0000              add [eax],al
00000966  0000              add [eax],al
00000968  0000              add [eax],al
0000096A  0000              add [eax],al
0000096C  0000              add [eax],al
0000096E  0000              add [eax],al
00000970  0000              add [eax],al
00000972  0000              add [eax],al
00000974  0000              add [eax],al
00000976  0000              add [eax],al
00000978  0000              add [eax],al
0000097A  0000              add [eax],al
0000097C  0000              add [eax],al
0000097E  0000              add [eax],al
00000980  0000              add [eax],al
00000982  0000              add [eax],al
00000984  0000              add [eax],al
00000986  0000              add [eax],al
00000988  0000              add [eax],al
0000098A  0000              add [eax],al
0000098C  0000              add [eax],al
0000098E  0000              add [eax],al
00000990  0000              add [eax],al
00000992  0000              add [eax],al
00000994  0000              add [eax],al
00000996  0000              add [eax],al
00000998  0000              add [eax],al
0000099A  0000              add [eax],al
0000099C  0000              add [eax],al
0000099E  0000              add [eax],al
000009A0  0000              add [eax],al
000009A2  0000              add [eax],al
000009A4  0000              add [eax],al
000009A6  0000              add [eax],al
000009A8  0000              add [eax],al
000009AA  0000              add [eax],al
000009AC  0000              add [eax],al
000009AE  0000              add [eax],al
000009B0  0000              add [eax],al
000009B2  0000              add [eax],al
000009B4  0000              add [eax],al
000009B6  0000              add [eax],al
000009B8  0000              add [eax],al
000009BA  0000              add [eax],al
000009BC  0000              add [eax],al
000009BE  0000              add [eax],al
000009C0  0000              add [eax],al
000009C2  0000              add [eax],al
000009C4  0000              add [eax],al
000009C6  0000              add [eax],al
000009C8  0000              add [eax],al
000009CA  0000              add [eax],al
000009CC  0000              add [eax],al
000009CE  0000              add [eax],al
000009D0  0000              add [eax],al
000009D2  0000              add [eax],al
000009D4  0000              add [eax],al
000009D6  0000              add [eax],al
000009D8  0000              add [eax],al
000009DA  0000              add [eax],al
000009DC  0000              add [eax],al
000009DE  0000              add [eax],al
000009E0  0000              add [eax],al
000009E2  0000              add [eax],al
000009E4  0000              add [eax],al
000009E6  0000              add [eax],al
000009E8  0000              add [eax],al
000009EA  0000              add [eax],al
000009EC  0000              add [eax],al
000009EE  0000              add [eax],al
000009F0  0000              add [eax],al
000009F2  0000              add [eax],al
000009F4  0000              add [eax],al
000009F6  0000              add [eax],al
000009F8  0000              add [eax],al
000009FA  0000              add [eax],al
000009FC  0000              add [eax],al
000009FE  0000              add [eax],al
00000A00  0000              add [eax],al
00000A02  0000              add [eax],al
00000A04  0000              add [eax],al
00000A06  0000              add [eax],al
00000A08  0000              add [eax],al
00000A0A  0000              add [eax],al
00000A0C  0000              add [eax],al
00000A0E  0000              add [eax],al
00000A10  0000              add [eax],al
00000A12  0000              add [eax],al
00000A14  0000              add [eax],al
00000A16  0000              add [eax],al
00000A18  0000              add [eax],al
00000A1A  0000              add [eax],al
00000A1C  0000              add [eax],al
00000A1E  0000              add [eax],al
00000A20  0000              add [eax],al
00000A22  0000              add [eax],al
00000A24  0000              add [eax],al
00000A26  0000              add [eax],al
00000A28  0000              add [eax],al
00000A2A  0000              add [eax],al
00000A2C  0000              add [eax],al
00000A2E  0000              add [eax],al
00000A30  0000              add [eax],al
00000A32  0000              add [eax],al
00000A34  0000              add [eax],al
00000A36  0000              add [eax],al
00000A38  0000              add [eax],al
00000A3A  0000              add [eax],al
00000A3C  0000              add [eax],al
00000A3E  0000              add [eax],al
00000A40  0000              add [eax],al
00000A42  0000              add [eax],al
00000A44  0000              add [eax],al
00000A46  0000              add [eax],al
00000A48  0000              add [eax],al
00000A4A  0000              add [eax],al
00000A4C  0000              add [eax],al
00000A4E  0000              add [eax],al
00000A50  0000              add [eax],al
00000A52  0000              add [eax],al
00000A54  0000              add [eax],al
00000A56  0000              add [eax],al
00000A58  0000              add [eax],al
00000A5A  0000              add [eax],al
00000A5C  0000              add [eax],al
00000A5E  0000              add [eax],al
00000A60  0000              add [eax],al
00000A62  0000              add [eax],al
00000A64  0000              add [eax],al
00000A66  0000              add [eax],al
00000A68  0000              add [eax],al
00000A6A  0000              add [eax],al
00000A6C  0000              add [eax],al
00000A6E  0000              add [eax],al
00000A70  0000              add [eax],al
00000A72  0000              add [eax],al
00000A74  0000              add [eax],al
00000A76  0000              add [eax],al
00000A78  0000              add [eax],al
00000A7A  0000              add [eax],al
00000A7C  0000              add [eax],al
00000A7E  0000              add [eax],al
00000A80  0000              add [eax],al
00000A82  0000              add [eax],al
00000A84  0000              add [eax],al
00000A86  0000              add [eax],al
00000A88  0000              add [eax],al
00000A8A  0000              add [eax],al
00000A8C  0000              add [eax],al
00000A8E  0000              add [eax],al
00000A90  0000              add [eax],al
00000A92  0000              add [eax],al
00000A94  0000              add [eax],al
00000A96  0000              add [eax],al
00000A98  0000              add [eax],al
00000A9A  0000              add [eax],al
00000A9C  0000              add [eax],al
00000A9E  0000              add [eax],al
00000AA0  0000              add [eax],al
00000AA2  0000              add [eax],al
00000AA4  0000              add [eax],al
00000AA6  0000              add [eax],al
00000AA8  0000              add [eax],al
00000AAA  0000              add [eax],al
00000AAC  0000              add [eax],al
00000AAE  0000              add [eax],al
00000AB0  0000              add [eax],al
00000AB2  0000              add [eax],al
00000AB4  0000              add [eax],al
00000AB6  0000              add [eax],al
00000AB8  0000              add [eax],al
00000ABA  0000              add [eax],al
00000ABC  0000              add [eax],al
00000ABE  0000              add [eax],al
00000AC0  0000              add [eax],al
00000AC2  0000              add [eax],al
00000AC4  0000              add [eax],al
00000AC6  0000              add [eax],al
00000AC8  0000              add [eax],al
00000ACA  0000              add [eax],al
00000ACC  0000              add [eax],al
00000ACE  0000              add [eax],al
00000AD0  0000              add [eax],al
00000AD2  0000              add [eax],al
00000AD4  0000              add [eax],al
00000AD6  0000              add [eax],al
00000AD8  0000              add [eax],al
00000ADA  0000              add [eax],al
00000ADC  0000              add [eax],al
00000ADE  0000              add [eax],al
00000AE0  0000              add [eax],al
00000AE2  0000              add [eax],al
00000AE4  0000              add [eax],al
00000AE6  0000              add [eax],al
00000AE8  0000              add [eax],al
00000AEA  0000              add [eax],al
00000AEC  0000              add [eax],al
00000AEE  0000              add [eax],al
00000AF0  0000              add [eax],al
00000AF2  0000              add [eax],al
00000AF4  0000              add [eax],al
00000AF6  0000              add [eax],al
00000AF8  0000              add [eax],al
00000AFA  0000              add [eax],al
00000AFC  0000              add [eax],al
00000AFE  0000              add [eax],al
00000B00  0000              add [eax],al
00000B02  0000              add [eax],al
00000B04  0000              add [eax],al
00000B06  0000              add [eax],al
00000B08  0000              add [eax],al
00000B0A  0000              add [eax],al
00000B0C  0000              add [eax],al
00000B0E  0000              add [eax],al
00000B10  0000              add [eax],al
00000B12  0000              add [eax],al
00000B14  0000              add [eax],al
00000B16  0000              add [eax],al
00000B18  0000              add [eax],al
00000B1A  0000              add [eax],al
00000B1C  0000              add [eax],al
00000B1E  0000              add [eax],al
00000B20  0000              add [eax],al
00000B22  0000              add [eax],al
00000B24  0000              add [eax],al
00000B26  0000              add [eax],al
00000B28  0000              add [eax],al
00000B2A  0000              add [eax],al
00000B2C  0000              add [eax],al
00000B2E  0000              add [eax],al
00000B30  0000              add [eax],al
00000B32  0000              add [eax],al
00000B34  0000              add [eax],al
00000B36  0000              add [eax],al
00000B38  0000              add [eax],al
00000B3A  0000              add [eax],al
00000B3C  0000              add [eax],al
00000B3E  0000              add [eax],al
00000B40  0000              add [eax],al
00000B42  0000              add [eax],al
00000B44  0000              add [eax],al
00000B46  0000              add [eax],al
00000B48  0000              add [eax],al
00000B4A  0000              add [eax],al
00000B4C  0000              add [eax],al
00000B4E  0000              add [eax],al
00000B50  0000              add [eax],al
00000B52  0000              add [eax],al
00000B54  0000              add [eax],al
00000B56  0000              add [eax],al
00000B58  0000              add [eax],al
00000B5A  0000              add [eax],al
00000B5C  0000              add [eax],al
00000B5E  0000              add [eax],al
00000B60  0000              add [eax],al
00000B62  0000              add [eax],al
00000B64  0000              add [eax],al
00000B66  0000              add [eax],al
00000B68  0000              add [eax],al
00000B6A  0000              add [eax],al
00000B6C  0000              add [eax],al
00000B6E  0000              add [eax],al
00000B70  0000              add [eax],al
00000B72  0000              add [eax],al
00000B74  0000              add [eax],al
00000B76  0000              add [eax],al
00000B78  0000              add [eax],al
00000B7A  0000              add [eax],al
00000B7C  0000              add [eax],al
00000B7E  0000              add [eax],al
00000B80  0000              add [eax],al
00000B82  0000              add [eax],al
00000B84  0000              add [eax],al
00000B86  0000              add [eax],al
00000B88  0000              add [eax],al
00000B8A  0000              add [eax],al
00000B8C  0000              add [eax],al
00000B8E  0000              add [eax],al
00000B90  0000              add [eax],al
00000B92  0000              add [eax],al
00000B94  0000              add [eax],al
00000B96  0000              add [eax],al
00000B98  0000              add [eax],al
00000B9A  0000              add [eax],al
00000B9C  0000              add [eax],al
00000B9E  0000              add [eax],al
00000BA0  0000              add [eax],al
00000BA2  0000              add [eax],al
00000BA4  0000              add [eax],al
00000BA6  0000              add [eax],al
00000BA8  0000              add [eax],al
00000BAA  0000              add [eax],al
00000BAC  0000              add [eax],al
00000BAE  0000              add [eax],al
00000BB0  0000              add [eax],al
00000BB2  0000              add [eax],al
00000BB4  0000              add [eax],al
00000BB6  0000              add [eax],al
00000BB8  0000              add [eax],al
00000BBA  0000              add [eax],al
00000BBC  0000              add [eax],al
00000BBE  0000              add [eax],al
00000BC0  0000              add [eax],al
00000BC2  0000              add [eax],al
00000BC4  0000              add [eax],al
00000BC6  0000              add [eax],al
00000BC8  0000              add [eax],al
00000BCA  0000              add [eax],al
00000BCC  0000              add [eax],al
00000BCE  0000              add [eax],al
00000BD0  0000              add [eax],al
00000BD2  0000              add [eax],al
00000BD4  0000              add [eax],al
00000BD6  0000              add [eax],al
00000BD8  0000              add [eax],al
00000BDA  0000              add [eax],al
00000BDC  0000              add [eax],al
00000BDE  0000              add [eax],al
00000BE0  0000              add [eax],al
00000BE2  0000              add [eax],al
00000BE4  0000              add [eax],al
00000BE6  0000              add [eax],al
00000BE8  0000              add [eax],al
00000BEA  0000              add [eax],al
00000BEC  0000              add [eax],al
00000BEE  0000              add [eax],al
00000BF0  0000              add [eax],al
00000BF2  0000              add [eax],al
00000BF4  0000              add [eax],al
00000BF6  0000              add [eax],al
00000BF8  0000              add [eax],al
00000BFA  0000              add [eax],al
00000BFC  0000              add [eax],al
00000BFE  0000              add [eax],al
00000C00  0000              add [eax],al
00000C02  0000              add [eax],al
00000C04  0000              add [eax],al
00000C06  0000              add [eax],al
00000C08  0000              add [eax],al
00000C0A  0000              add [eax],al
00000C0C  0000              add [eax],al
00000C0E  0000              add [eax],al
00000C10  0000              add [eax],al
00000C12  0000              add [eax],al
00000C14  0000              add [eax],al
00000C16  0000              add [eax],al
00000C18  0000              add [eax],al
00000C1A  0000              add [eax],al
00000C1C  0000              add [eax],al
00000C1E  0000              add [eax],al
00000C20  0000              add [eax],al
00000C22  0000              add [eax],al
00000C24  0000              add [eax],al
00000C26  0000              add [eax],al
00000C28  0000              add [eax],al
00000C2A  0000              add [eax],al
00000C2C  0000              add [eax],al
00000C2E  0000              add [eax],al
00000C30  0000              add [eax],al
00000C32  0000              add [eax],al
00000C34  0000              add [eax],al
00000C36  0000              add [eax],al
00000C38  0000              add [eax],al
00000C3A  0000              add [eax],al
00000C3C  0000              add [eax],al
00000C3E  0000              add [eax],al
00000C40  0000              add [eax],al
00000C42  0000              add [eax],al
00000C44  0000              add [eax],al
00000C46  0000              add [eax],al
00000C48  0000              add [eax],al
00000C4A  0000              add [eax],al
00000C4C  0000              add [eax],al
00000C4E  0000              add [eax],al
00000C50  0000              add [eax],al
00000C52  0000              add [eax],al
00000C54  0000              add [eax],al
00000C56  0000              add [eax],al
00000C58  0000              add [eax],al
00000C5A  0000              add [eax],al
00000C5C  0000              add [eax],al
00000C5E  0000              add [eax],al
00000C60  0000              add [eax],al
00000C62  0000              add [eax],al
00000C64  0000              add [eax],al
00000C66  0000              add [eax],al
00000C68  0000              add [eax],al
00000C6A  0000              add [eax],al
00000C6C  0000              add [eax],al
00000C6E  0000              add [eax],al
00000C70  0000              add [eax],al
00000C72  0000              add [eax],al
00000C74  0000              add [eax],al
00000C76  0000              add [eax],al
00000C78  0000              add [eax],al
00000C7A  0000              add [eax],al
00000C7C  0000              add [eax],al
00000C7E  0000              add [eax],al
00000C80  0000              add [eax],al
00000C82  0000              add [eax],al
00000C84  0000              add [eax],al
00000C86  0000              add [eax],al
00000C88  0000              add [eax],al
00000C8A  0000              add [eax],al
00000C8C  0000              add [eax],al
00000C8E  0000              add [eax],al
00000C90  0000              add [eax],al
00000C92  0000              add [eax],al
00000C94  0000              add [eax],al
00000C96  0000              add [eax],al
00000C98  0000              add [eax],al
00000C9A  0000              add [eax],al
00000C9C  0000              add [eax],al
00000C9E  0000              add [eax],al
00000CA0  0000              add [eax],al
00000CA2  0000              add [eax],al
00000CA4  0000              add [eax],al
00000CA6  0000              add [eax],al
00000CA8  0000              add [eax],al
00000CAA  0000              add [eax],al
00000CAC  0000              add [eax],al
00000CAE  0000              add [eax],al
00000CB0  0000              add [eax],al
00000CB2  0000              add [eax],al
00000CB4  0000              add [eax],al
00000CB6  0000              add [eax],al
00000CB8  0000              add [eax],al
00000CBA  0000              add [eax],al
00000CBC  0000              add [eax],al
00000CBE  0000              add [eax],al
00000CC0  0000              add [eax],al
00000CC2  0000              add [eax],al
00000CC4  0000              add [eax],al
00000CC6  0000              add [eax],al
00000CC8  0000              add [eax],al
00000CCA  0000              add [eax],al
00000CCC  0000              add [eax],al
00000CCE  0000              add [eax],al
00000CD0  0000              add [eax],al
00000CD2  0000              add [eax],al
00000CD4  0000              add [eax],al
00000CD6  0000              add [eax],al
00000CD8  0000              add [eax],al
00000CDA  0000              add [eax],al
00000CDC  0000              add [eax],al
00000CDE  0000              add [eax],al
00000CE0  0000              add [eax],al
00000CE2  0000              add [eax],al
00000CE4  0000              add [eax],al
00000CE6  0000              add [eax],al
00000CE8  0000              add [eax],al
00000CEA  0000              add [eax],al
00000CEC  0000              add [eax],al
00000CEE  0000              add [eax],al
00000CF0  0000              add [eax],al
00000CF2  0000              add [eax],al
00000CF4  0000              add [eax],al
00000CF6  0000              add [eax],al
00000CF8  0000              add [eax],al
00000CFA  0000              add [eax],al
00000CFC  0000              add [eax],al
00000CFE  0000              add [eax],al
00000D00  0000              add [eax],al
00000D02  0000              add [eax],al
00000D04  0000              add [eax],al
00000D06  0000              add [eax],al
00000D08  0000              add [eax],al
00000D0A  0000              add [eax],al
00000D0C  0000              add [eax],al
00000D0E  0000              add [eax],al
00000D10  0000              add [eax],al
00000D12  0000              add [eax],al
00000D14  0000              add [eax],al
00000D16  0000              add [eax],al
00000D18  0000              add [eax],al
00000D1A  0000              add [eax],al
00000D1C  0000              add [eax],al
00000D1E  0000              add [eax],al
00000D20  0000              add [eax],al
00000D22  0000              add [eax],al
00000D24  0000              add [eax],al
00000D26  0000              add [eax],al
00000D28  0000              add [eax],al
00000D2A  0000              add [eax],al
00000D2C  0000              add [eax],al
00000D2E  0000              add [eax],al
00000D30  0000              add [eax],al
00000D32  0000              add [eax],al
00000D34  0000              add [eax],al
00000D36  0000              add [eax],al
00000D38  0000              add [eax],al
00000D3A  0000              add [eax],al
00000D3C  0000              add [eax],al
00000D3E  0000              add [eax],al
00000D40  0000              add [eax],al
00000D42  0000              add [eax],al
00000D44  0000              add [eax],al
00000D46  0000              add [eax],al
00000D48  0000              add [eax],al
00000D4A  0000              add [eax],al
00000D4C  0000              add [eax],al
00000D4E  0000              add [eax],al
00000D50  0000              add [eax],al
00000D52  0000              add [eax],al
00000D54  0000              add [eax],al
00000D56  0000              add [eax],al
00000D58  0000              add [eax],al
00000D5A  0000              add [eax],al
00000D5C  0000              add [eax],al
00000D5E  0000              add [eax],al
00000D60  0000              add [eax],al
00000D62  0000              add [eax],al
00000D64  0000              add [eax],al
00000D66  0000              add [eax],al
00000D68  0000              add [eax],al
00000D6A  0000              add [eax],al
00000D6C  0000              add [eax],al
00000D6E  0000              add [eax],al
00000D70  0000              add [eax],al
00000D72  0000              add [eax],al
00000D74  0000              add [eax],al
00000D76  0000              add [eax],al
00000D78  0000              add [eax],al
00000D7A  0000              add [eax],al
00000D7C  0000              add [eax],al
00000D7E  0000              add [eax],al
00000D80  0000              add [eax],al
00000D82  0000              add [eax],al
00000D84  0000              add [eax],al
00000D86  0000              add [eax],al
00000D88  0000              add [eax],al
00000D8A  0000              add [eax],al
00000D8C  0000              add [eax],al
00000D8E  0000              add [eax],al
00000D90  0000              add [eax],al
00000D92  0000              add [eax],al
00000D94  0000              add [eax],al
00000D96  0000              add [eax],al
00000D98  0000              add [eax],al
00000D9A  0000              add [eax],al
00000D9C  0000              add [eax],al
00000D9E  0000              add [eax],al
00000DA0  0000              add [eax],al
00000DA2  0000              add [eax],al
00000DA4  0000              add [eax],al
00000DA6  0000              add [eax],al
00000DA8  0000              add [eax],al
00000DAA  0000              add [eax],al
00000DAC  0000              add [eax],al
00000DAE  0000              add [eax],al
00000DB0  0000              add [eax],al
00000DB2  0000              add [eax],al
00000DB4  0000              add [eax],al
00000DB6  0000              add [eax],al
00000DB8  0000              add [eax],al
00000DBA  0000              add [eax],al
00000DBC  0000              add [eax],al
00000DBE  0000              add [eax],al
00000DC0  0000              add [eax],al
00000DC2  0000              add [eax],al
00000DC4  0000              add [eax],al
00000DC6  0000              add [eax],al
00000DC8  0000              add [eax],al
00000DCA  0000              add [eax],al
00000DCC  0000              add [eax],al
00000DCE  0000              add [eax],al
00000DD0  0000              add [eax],al
00000DD2  0000              add [eax],al
00000DD4  0000              add [eax],al
00000DD6  0000              add [eax],al
00000DD8  0000              add [eax],al
00000DDA  0000              add [eax],al
00000DDC  0000              add [eax],al
00000DDE  0000              add [eax],al
00000DE0  0000              add [eax],al
00000DE2  0000              add [eax],al
00000DE4  0000              add [eax],al
00000DE6  0000              add [eax],al
00000DE8  0000              add [eax],al
00000DEA  0000              add [eax],al
00000DEC  0000              add [eax],al
00000DEE  0000              add [eax],al
00000DF0  0000              add [eax],al
00000DF2  0000              add [eax],al
00000DF4  0000              add [eax],al
00000DF6  0000              add [eax],al
00000DF8  0000              add [eax],al
00000DFA  0000              add [eax],al
00000DFC  0000              add [eax],al
00000DFE  0000              add [eax],al
00000E00  0000              add [eax],al
00000E02  0000              add [eax],al
00000E04  0000              add [eax],al
00000E06  0000              add [eax],al
00000E08  0000              add [eax],al
00000E0A  0000              add [eax],al
00000E0C  0000              add [eax],al
00000E0E  0000              add [eax],al
00000E10  0000              add [eax],al
00000E12  0000              add [eax],al
00000E14  0000              add [eax],al
00000E16  0000              add [eax],al
00000E18  0000              add [eax],al
00000E1A  0000              add [eax],al
00000E1C  0000              add [eax],al
00000E1E  0000              add [eax],al
00000E20  0000              add [eax],al
00000E22  0000              add [eax],al
00000E24  0000              add [eax],al
00000E26  0000              add [eax],al
00000E28  0000              add [eax],al
00000E2A  0000              add [eax],al
00000E2C  0000              add [eax],al
00000E2E  0000              add [eax],al
00000E30  0000              add [eax],al
00000E32  0000              add [eax],al
00000E34  0000              add [eax],al
00000E36  0000              add [eax],al
00000E38  0000              add [eax],al
00000E3A  0000              add [eax],al
00000E3C  0000              add [eax],al
00000E3E  0000              add [eax],al
00000E40  0000              add [eax],al
00000E42  0000              add [eax],al
00000E44  0000              add [eax],al
00000E46  0000              add [eax],al
00000E48  0000              add [eax],al
00000E4A  0000              add [eax],al
00000E4C  0000              add [eax],al
00000E4E  0000              add [eax],al
00000E50  0000              add [eax],al
00000E52  0000              add [eax],al
00000E54  0000              add [eax],al
00000E56  0000              add [eax],al
00000E58  0000              add [eax],al
00000E5A  0000              add [eax],al
00000E5C  0000              add [eax],al
00000E5E  0000              add [eax],al
00000E60  0000              add [eax],al
00000E62  0000              add [eax],al
00000E64  0000              add [eax],al
00000E66  0000              add [eax],al
00000E68  0000              add [eax],al
00000E6A  0000              add [eax],al
00000E6C  0000              add [eax],al
00000E6E  0000              add [eax],al
00000E70  0000              add [eax],al
00000E72  0000              add [eax],al
00000E74  0000              add [eax],al
00000E76  0000              add [eax],al
00000E78  0000              add [eax],al
00000E7A  0000              add [eax],al
00000E7C  0000              add [eax],al
00000E7E  0000              add [eax],al
00000E80  0000              add [eax],al
00000E82  0000              add [eax],al
00000E84  0000              add [eax],al
00000E86  0000              add [eax],al
00000E88  0000              add [eax],al
00000E8A  0000              add [eax],al
00000E8C  0000              add [eax],al
00000E8E  0000              add [eax],al
00000E90  0000              add [eax],al
00000E92  0000              add [eax],al
00000E94  0000              add [eax],al
00000E96  0000              add [eax],al
00000E98  0000              add [eax],al
00000E9A  0000              add [eax],al
00000E9C  0000              add [eax],al
00000E9E  0000              add [eax],al
00000EA0  0000              add [eax],al
00000EA2  0000              add [eax],al
00000EA4  0000              add [eax],al
00000EA6  0000              add [eax],al
00000EA8  0000              add [eax],al
00000EAA  0000              add [eax],al
00000EAC  0000              add [eax],al
00000EAE  0000              add [eax],al
00000EB0  0000              add [eax],al
00000EB2  0000              add [eax],al
00000EB4  0000              add [eax],al
00000EB6  0000              add [eax],al
00000EB8  0000              add [eax],al
00000EBA  0000              add [eax],al
00000EBC  0000              add [eax],al
00000EBE  0000              add [eax],al
00000EC0  0000              add [eax],al
00000EC2  0000              add [eax],al
00000EC4  0000              add [eax],al
00000EC6  0000              add [eax],al
00000EC8  0000              add [eax],al
00000ECA  0000              add [eax],al
00000ECC  0000              add [eax],al
00000ECE  0000              add [eax],al
00000ED0  0000              add [eax],al
00000ED2  0000              add [eax],al
00000ED4  0000              add [eax],al
00000ED6  0000              add [eax],al
00000ED8  0000              add [eax],al
00000EDA  0000              add [eax],al
00000EDC  0000              add [eax],al
00000EDE  0000              add [eax],al
00000EE0  0000              add [eax],al
00000EE2  0000              add [eax],al
00000EE4  0000              add [eax],al
00000EE6  0000              add [eax],al
00000EE8  0000              add [eax],al
00000EEA  0000              add [eax],al
00000EEC  0000              add [eax],al
00000EEE  0000              add [eax],al
00000EF0  0000              add [eax],al
00000EF2  0000              add [eax],al
00000EF4  0000              add [eax],al
00000EF6  0000              add [eax],al
00000EF8  0000              add [eax],al
00000EFA  0000              add [eax],al
00000EFC  0000              add [eax],al
00000EFE  0000              add [eax],al
00000F00  0000              add [eax],al
00000F02  0000              add [eax],al
00000F04  0000              add [eax],al
00000F06  0000              add [eax],al
00000F08  0000              add [eax],al
00000F0A  0000              add [eax],al
00000F0C  0000              add [eax],al
00000F0E  0000              add [eax],al
00000F10  0000              add [eax],al
00000F12  0000              add [eax],al
00000F14  0000              add [eax],al
00000F16  0000              add [eax],al
00000F18  0000              add [eax],al
00000F1A  0000              add [eax],al
00000F1C  0000              add [eax],al
00000F1E  0000              add [eax],al
00000F20  0000              add [eax],al
00000F22  0000              add [eax],al
00000F24  0000              add [eax],al
00000F26  0000              add [eax],al
00000F28  0000              add [eax],al
00000F2A  0000              add [eax],al
00000F2C  0000              add [eax],al
00000F2E  0000              add [eax],al
00000F30  0000              add [eax],al
00000F32  0000              add [eax],al
00000F34  0000              add [eax],al
00000F36  0000              add [eax],al
00000F38  0000              add [eax],al
00000F3A  0000              add [eax],al
00000F3C  0000              add [eax],al
00000F3E  0000              add [eax],al
00000F40  0000              add [eax],al
00000F42  0000              add [eax],al
00000F44  0000              add [eax],al
00000F46  0000              add [eax],al
00000F48  0000              add [eax],al
00000F4A  0000              add [eax],al
00000F4C  0000              add [eax],al
00000F4E  0000              add [eax],al
00000F50  0000              add [eax],al
00000F52  0000              add [eax],al
00000F54  0000              add [eax],al
00000F56  0000              add [eax],al
00000F58  0000              add [eax],al
00000F5A  0000              add [eax],al
00000F5C  0000              add [eax],al
00000F5E  0000              add [eax],al
00000F60  0000              add [eax],al
00000F62  0000              add [eax],al
00000F64  0000              add [eax],al
00000F66  0000              add [eax],al
00000F68  0000              add [eax],al
00000F6A  0000              add [eax],al
00000F6C  0000              add [eax],al
00000F6E  0000              add [eax],al
00000F70  0000              add [eax],al
00000F72  0000              add [eax],al
00000F74  0000              add [eax],al
00000F76  0000              add [eax],al
00000F78  0000              add [eax],al
00000F7A  0000              add [eax],al
00000F7C  0000              add [eax],al
00000F7E  0000              add [eax],al
00000F80  0000              add [eax],al
00000F82  0000              add [eax],al
00000F84  0000              add [eax],al
00000F86  0000              add [eax],al
00000F88  0000              add [eax],al
00000F8A  0000              add [eax],al
00000F8C  0000              add [eax],al
00000F8E  0000              add [eax],al
00000F90  0000              add [eax],al
00000F92  0000              add [eax],al
00000F94  0000              add [eax],al
00000F96  0000              add [eax],al
00000F98  0000              add [eax],al
00000F9A  0000              add [eax],al
00000F9C  0000              add [eax],al
00000F9E  0000              add [eax],al
00000FA0  0000              add [eax],al
00000FA2  0000              add [eax],al
00000FA4  0000              add [eax],al
00000FA6  0000              add [eax],al
00000FA8  0000              add [eax],al
00000FAA  0000              add [eax],al
00000FAC  0000              add [eax],al
00000FAE  0000              add [eax],al
00000FB0  0000              add [eax],al
00000FB2  0000              add [eax],al
00000FB4  0000              add [eax],al
00000FB6  0000              add [eax],al
00000FB8  0000              add [eax],al
00000FBA  0000              add [eax],al
00000FBC  0000              add [eax],al
00000FBE  0000              add [eax],al
00000FC0  0000              add [eax],al
00000FC2  0000              add [eax],al
00000FC4  0000              add [eax],al
00000FC6  0000              add [eax],al
00000FC8  0000              add [eax],al
00000FCA  0000              add [eax],al
00000FCC  0000              add [eax],al
00000FCE  0000              add [eax],al
00000FD0  0000              add [eax],al
00000FD2  0000              add [eax],al
00000FD4  0000              add [eax],al
00000FD6  0000              add [eax],al
00000FD8  0000              add [eax],al
00000FDA  0000              add [eax],al
00000FDC  0000              add [eax],al
00000FDE  0000              add [eax],al
00000FE0  0000              add [eax],al
00000FE2  0000              add [eax],al
00000FE4  0000              add [eax],al
00000FE6  0000              add [eax],al
00000FE8  0000              add [eax],al
00000FEA  0000              add [eax],al
00000FEC  0000              add [eax],al
00000FEE  0000              add [eax],al
00000FF0  0000              add [eax],al
00000FF2  0000              add [eax],al
00000FF4  0000              add [eax],al
00000FF6  0000              add [eax],al
00000FF8  0000              add [eax],al
00000FFA  0000              add [eax],al
00000FFC  0000              add [eax],al
00000FFE  0000              add [eax],al
00001000  0000              add [eax],al
00001002  0000              add [eax],al
00001004  0000              add [eax],al
00001006  0000              add [eax],al
00001008  0000              add [eax],al
0000100A  0000              add [eax],al
0000100C  0000              add [eax],al
0000100E  0000              add [eax],al
00001010  0000              add [eax],al
00001012  0000              add [eax],al
00001014  0000              add [eax],al
00001016  0000              add [eax],al
00001018  0000              add [eax],al
0000101A  0000              add [eax],al
0000101C  0000              add [eax],al
0000101E  0000              add [eax],al
00001020  0000              add [eax],al
00001022  0000              add [eax],al
00001024  0000              add [eax],al
00001026  0000              add [eax],al
00001028  0000              add [eax],al
0000102A  0000              add [eax],al
0000102C  0000              add [eax],al
0000102E  0000              add [eax],al
00001030  0000              add [eax],al
00001032  0000              add [eax],al
00001034  0000              add [eax],al
00001036  0000              add [eax],al
00001038  0000              add [eax],al
0000103A  0000              add [eax],al
0000103C  0000              add [eax],al
0000103E  0000              add [eax],al
00001040  0000              add [eax],al
00001042  0000              add [eax],al
00001044  0000              add [eax],al
00001046  0000              add [eax],al
00001048  0000              add [eax],al
0000104A  0000              add [eax],al
0000104C  0000              add [eax],al
0000104E  0000              add [eax],al
00001050  0000              add [eax],al
00001052  0000              add [eax],al
00001054  0000              add [eax],al
00001056  0000              add [eax],al
00001058  0000              add [eax],al
0000105A  0000              add [eax],al
0000105C  0000              add [eax],al
0000105E  0000              add [eax],al
00001060  0000              add [eax],al
00001062  0000              add [eax],al
00001064  0000              add [eax],al
00001066  0000              add [eax],al
00001068  0000              add [eax],al
0000106A  0000              add [eax],al
0000106C  0000              add [eax],al
0000106E  0000              add [eax],al
00001070  0000              add [eax],al
00001072  0000              add [eax],al
00001074  0000              add [eax],al
00001076  0000              add [eax],al
00001078  0000              add [eax],al
0000107A  0000              add [eax],al
0000107C  0000              add [eax],al
0000107E  0000              add [eax],al
00001080  0000              add [eax],al
00001082  0000              add [eax],al
00001084  0000              add [eax],al
00001086  0000              add [eax],al
00001088  0000              add [eax],al
0000108A  0000              add [eax],al
0000108C  0000              add [eax],al
0000108E  0000              add [eax],al
00001090  0000              add [eax],al
00001092  0000              add [eax],al
00001094  0000              add [eax],al
00001096  0000              add [eax],al
00001098  0000              add [eax],al
0000109A  0000              add [eax],al
0000109C  0000              add [eax],al
0000109E  0000              add [eax],al
000010A0  0000              add [eax],al
000010A2  0000              add [eax],al
000010A4  0000              add [eax],al
000010A6  0000              add [eax],al
000010A8  0000              add [eax],al
000010AA  0000              add [eax],al
000010AC  0000              add [eax],al
000010AE  0000              add [eax],al
000010B0  0000              add [eax],al
000010B2  0000              add [eax],al
000010B4  0000              add [eax],al
000010B6  0000              add [eax],al
000010B8  0000              add [eax],al
000010BA  0000              add [eax],al
000010BC  0000              add [eax],al
000010BE  0000              add [eax],al
000010C0  0000              add [eax],al
000010C2  0000              add [eax],al
000010C4  0000              add [eax],al
000010C6  0000              add [eax],al
000010C8  0000              add [eax],al
000010CA  0000              add [eax],al
000010CC  0000              add [eax],al
000010CE  0000              add [eax],al
000010D0  0000              add [eax],al
000010D2  0000              add [eax],al
000010D4  0000              add [eax],al
000010D6  0000              add [eax],al
000010D8  0000              add [eax],al
000010DA  0000              add [eax],al
000010DC  0000              add [eax],al
000010DE  0000              add [eax],al
000010E0  0000              add [eax],al
000010E2  0000              add [eax],al
000010E4  0000              add [eax],al
000010E6  0000              add [eax],al
000010E8  0000              add [eax],al
000010EA  0000              add [eax],al
000010EC  0000              add [eax],al
000010EE  0000              add [eax],al
000010F0  0000              add [eax],al
000010F2  0000              add [eax],al
000010F4  0000              add [eax],al
000010F6  0000              add [eax],al
000010F8  0000              add [eax],al
000010FA  0000              add [eax],al
000010FC  0000              add [eax],al
000010FE  0000              add [eax],al
00001100  0000              add [eax],al
00001102  0000              add [eax],al
00001104  0000              add [eax],al
00001106  0000              add [eax],al
00001108  0000              add [eax],al
0000110A  0000              add [eax],al
0000110C  0000              add [eax],al
0000110E  0000              add [eax],al
00001110  0000              add [eax],al
00001112  0000              add [eax],al
00001114  0000              add [eax],al
00001116  0000              add [eax],al
00001118  0000              add [eax],al
0000111A  0000              add [eax],al
0000111C  0000              add [eax],al
0000111E  0000              add [eax],al
00001120  0000              add [eax],al
00001122  0000              add [eax],al
00001124  0000              add [eax],al
00001126  0000              add [eax],al
00001128  0000              add [eax],al
0000112A  0000              add [eax],al
0000112C  0000              add [eax],al
0000112E  0000              add [eax],al
00001130  0000              add [eax],al
00001132  0000              add [eax],al
00001134  0000              add [eax],al
00001136  0000              add [eax],al
00001138  0000              add [eax],al
0000113A  0000              add [eax],al
0000113C  0000              add [eax],al
0000113E  0000              add [eax],al
00001140  0000              add [eax],al
00001142  0000              add [eax],al
00001144  0000              add [eax],al
00001146  0000              add [eax],al
00001148  0000              add [eax],al
0000114A  0000              add [eax],al
0000114C  0000              add [eax],al
0000114E  0000              add [eax],al
00001150  0000              add [eax],al
00001152  0000              add [eax],al
00001154  0000              add [eax],al
00001156  0000              add [eax],al
00001158  0000              add [eax],al
0000115A  0000              add [eax],al
0000115C  0000              add [eax],al
0000115E  0000              add [eax],al
00001160  0000              add [eax],al
00001162  0000              add [eax],al
00001164  0000              add [eax],al
00001166  0000              add [eax],al
00001168  0000              add [eax],al
0000116A  0000              add [eax],al
0000116C  0000              add [eax],al
0000116E  0000              add [eax],al
00001170  0000              add [eax],al
00001172  0000              add [eax],al
00001174  0000              add [eax],al
00001176  0000              add [eax],al
00001178  0000              add [eax],al
0000117A  0000              add [eax],al
0000117C  0000              add [eax],al
0000117E  0000              add [eax],al
00001180  0000              add [eax],al
00001182  0000              add [eax],al
00001184  0000              add [eax],al
00001186  0000              add [eax],al
00001188  0000              add [eax],al
0000118A  0000              add [eax],al
0000118C  0000              add [eax],al
0000118E  0000              add [eax],al
00001190  0000              add [eax],al
00001192  0000              add [eax],al
00001194  0000              add [eax],al
00001196  0000              add [eax],al
00001198  0000              add [eax],al
0000119A  0000              add [eax],al
0000119C  0000              add [eax],al
0000119E  0000              add [eax],al
000011A0  0000              add [eax],al
000011A2  0000              add [eax],al
000011A4  0000              add [eax],al
000011A6  0000              add [eax],al
000011A8  0000              add [eax],al
000011AA  0000              add [eax],al
000011AC  0000              add [eax],al
000011AE  0000              add [eax],al
000011B0  0000              add [eax],al
000011B2  0000              add [eax],al
000011B4  0000              add [eax],al
000011B6  0000              add [eax],al
000011B8  0000              add [eax],al
000011BA  0000              add [eax],al
000011BC  0000              add [eax],al
000011BE  0000              add [eax],al
000011C0  0000              add [eax],al
000011C2  0000              add [eax],al
000011C4  0000              add [eax],al
000011C6  0000              add [eax],al
000011C8  0000              add [eax],al
000011CA  0000              add [eax],al
000011CC  0000              add [eax],al
000011CE  0000              add [eax],al
000011D0  0000              add [eax],al
000011D2  0000              add [eax],al
000011D4  0000              add [eax],al
000011D6  0000              add [eax],al
000011D8  0000              add [eax],al
000011DA  0000              add [eax],al
000011DC  0000              add [eax],al
000011DE  0000              add [eax],al
000011E0  0000              add [eax],al
000011E2  0000              add [eax],al
000011E4  0000              add [eax],al
000011E6  0000              add [eax],al
000011E8  0000              add [eax],al
000011EA  0000              add [eax],al
000011EC  0000              add [eax],al
000011EE  0000              add [eax],al
000011F0  0000              add [eax],al
000011F2  0000              add [eax],al
000011F4  0000              add [eax],al
000011F6  0000              add [eax],al
000011F8  0000              add [eax],al
000011FA  0000              add [eax],al
000011FC  0000              add [eax],al
000011FE  0000              add [eax],al
00001200  006690            add [esi-0x70],ah
00001203  6690              xchg ax,ax
00001205  6690              xchg ax,ax
00001207  6690              xchg ax,ax
00001209  6690              xchg ax,ax
0000120B  6690              xchg ax,ax
0000120D  6690              xchg ax,ax
0000120F  90                nop
00001210  E863040000        call 0x1678
00001215  EBFE              jmp short 0x1215
00001217  55                push ebp
00001218  89E5              mov ebp,esp
0000121A  83EC10            sub esp,byte +0x10
0000121D  E8E8040000        call 0x170a
00001222  05D22F0000        add eax,0x2fd2
00001227  C745FC00000000    mov dword [ebp-0x4],0x0
0000122E  EB19              jmp short 0x1249
00001230  8B55FC            mov edx,[ebp-0x4]
00001233  8B4508            mov eax,[ebp+0x8]
00001236  01D0              add eax,edx
00001238  8B4DFC            mov ecx,[ebp-0x4]
0000123B  8B550C            mov edx,[ebp+0xc]
0000123E  01CA              add edx,ecx
00001240  0FB600            movzx eax,byte [eax]
00001243  8802              mov [edx],al
00001245  8345FC01          add dword [ebp-0x4],byte +0x1
00001249  8B45FC            mov eax,[ebp-0x4]
0000124C  3B4510            cmp eax,[ebp+0x10]
0000124F  7CDF              jl 0x1230
00001251  90                nop
00001252  90                nop
00001253  C9                leave
00001254  C3                ret
00001255  55                push ebp
00001256  89E5              mov ebp,esp
00001258  83EC14            sub esp,byte +0x14
0000125B  E8AA040000        call 0x170a
00001260  05942F0000        add eax,0x2f94
00001265  8B4508            mov eax,[ebp+0x8]
00001268  668945EC          mov [ebp-0x14],ax
0000126C  0FB745EC          movzx eax,word [ebp-0x14]
00001270  89C2              mov edx,eax
00001272  EC                in al,dx
00001273  8845FF            mov [ebp-0x1],al
00001276  0FB645FF          movzx eax,byte [ebp-0x1]
0000127A  C9                leave
0000127B  C3                ret
0000127C  55                push ebp
0000127D  89E5              mov ebp,esp
0000127F  83EC08            sub esp,byte +0x8
00001282  E883040000        call 0x170a
00001287  056D2F0000        add eax,0x2f6d
0000128C  8B5508            mov edx,[ebp+0x8]
0000128F  8B450C            mov eax,[ebp+0xc]
00001292  668955FC          mov [ebp-0x4],dx
00001296  8845F8            mov [ebp-0x8],al
00001299  0FB645F8          movzx eax,byte [ebp-0x8]
0000129D  0FB755FC          movzx edx,word [ebp-0x4]
000012A1  EE                out dx,al
000012A2  90                nop
000012A3  C9                leave
000012A4  C3                ret
000012A5  55                push ebp
000012A6  89E5              mov ebp,esp
000012A8  83EC14            sub esp,byte +0x14
000012AB  E85A040000        call 0x170a
000012B0  05442F0000        add eax,0x2f44
000012B5  8B4508            mov eax,[ebp+0x8]
000012B8  668945EC          mov [ebp-0x14],ax
000012BC  0FB745EC          movzx eax,word [ebp-0x14]
000012C0  89C2              mov edx,eax
000012C2  66ED              in ax,dx
000012C4  668945FE          mov [ebp-0x2],ax
000012C8  0FB745FE          movzx eax,word [ebp-0x2]
000012CC  C9                leave
000012CD  C3                ret
000012CE  55                push ebp
000012CF  89E5              mov ebp,esp
000012D1  83EC08            sub esp,byte +0x8
000012D4  E831040000        call 0x170a
000012D9  051B2F0000        add eax,0x2f1b
000012DE  8B5508            mov edx,[ebp+0x8]
000012E1  8B450C            mov eax,[ebp+0xc]
000012E4  668955FC          mov [ebp-0x4],dx
000012E8  668945F8          mov [ebp-0x8],ax
000012EC  0FB745F8          movzx eax,word [ebp-0x8]
000012F0  0FB755FC          movzx edx,word [ebp-0x4]
000012F4  66EF              out dx,ax
000012F6  90                nop
000012F7  C9                leave
000012F8  C3                ret
000012F9  55                push ebp
000012FA  89E5              mov ebp,esp
000012FC  E809040000        call 0x170a
00001301  05F32E0000        add eax,0x2ef3
00001306  8B550C            mov edx,[ebp+0xc]
00001309  89D0              mov eax,edx
0000130B  C1E002            shl eax,byte 0x2
0000130E  01D0              add eax,edx
00001310  C1E004            shl eax,byte 0x4
00001313  89C2              mov edx,eax
00001315  8B4508            mov eax,[ebp+0x8]
00001318  01D0              add eax,edx
0000131A  01C0              add eax,eax
0000131C  5D                pop ebp
0000131D  C3                ret
0000131E  55                push ebp
0000131F  89E5              mov ebp,esp
00001321  83EC10            sub esp,byte +0x10
00001324  E8E1030000        call 0x170a
00001329  05CB2E0000        add eax,0x2ecb
0000132E  6A0E              push byte +0xe
00001330  68D4030000        push dword 0x3d4
00001335  E842FFFFFF        call 0x127c
0000133A  83C408            add esp,byte +0x8
0000133D  68D5030000        push dword 0x3d5
00001342  E80EFFFFFF        call 0x1255
00001347  83C404            add esp,byte +0x4
0000134A  0FB6C0            movzx eax,al
0000134D  C1E008            shl eax,byte 0x8
00001350  8945FC            mov [ebp-0x4],eax
00001353  6A0F              push byte +0xf
00001355  68D4030000        push dword 0x3d4
0000135A  E81DFFFFFF        call 0x127c
0000135F  83C408            add esp,byte +0x8
00001362  68D5030000        push dword 0x3d5
00001367  E8E9FEFFFF        call 0x1255
0000136C  83C404            add esp,byte +0x4
0000136F  0FB6C0            movzx eax,al
00001372  0145FC            add [ebp-0x4],eax
00001375  8B45FC            mov eax,[ebp-0x4]
00001378  01C0              add eax,eax
0000137A  C9                leave
0000137B  C3                ret
0000137C  55                push ebp
0000137D  89E5              mov ebp,esp
0000137F  E886030000        call 0x170a
00001384  05702E0000        add eax,0x2e70
00001389  8B4508            mov eax,[ebp+0x8]
0000138C  89C2              mov edx,eax
0000138E  C1EA1F            shr edx,byte 0x1f
00001391  01D0              add eax,edx
00001393  D1F8              sar eax,1
00001395  894508            mov [ebp+0x8],eax
00001398  6A0E              push byte +0xe
0000139A  68D4030000        push dword 0x3d4
0000139F  E8D8FEFFFF        call 0x127c
000013A4  83C408            add esp,byte +0x8
000013A7  8B4508            mov eax,[ebp+0x8]
000013AA  C1F808            sar eax,byte 0x8
000013AD  0FB6C0            movzx eax,al
000013B0  50                push eax
000013B1  68D5030000        push dword 0x3d5
000013B6  E8C1FEFFFF        call 0x127c
000013BB  83C408            add esp,byte +0x8
000013BE  6A0F              push byte +0xf
000013C0  68D4030000        push dword 0x3d4
000013C5  E8B2FEFFFF        call 0x127c
000013CA  83C408            add esp,byte +0x8
000013CD  8B4508            mov eax,[ebp+0x8]
000013D0  0FB6C0            movzx eax,al
000013D3  50                push eax
000013D4  68D5030000        push dword 0x3d5
000013D9  E89EFEFFFF        call 0x127c
000013DE  83C408            add esp,byte +0x8
000013E1  90                nop
000013E2  C9                leave
000013E3  C3                ret
000013E4  55                push ebp
000013E5  89E5              mov ebp,esp
000013E7  53                push ebx
000013E8  83EC10            sub esp,byte +0x10
000013EB  E81A030000        call 0x170a
000013F0  05042E0000        add eax,0x2e04
000013F5  817D089F0F0000    cmp dword [ebp+0x8],0xf9f
000013FC  7F08              jg 0x1406
000013FE  8B4508            mov eax,[ebp+0x8]
00001401  E98B000000        jmp 0x1491
00001406  C745F401000000    mov dword [ebp-0xc],0x1
0000140D  EB3D              jmp short 0x144c
0000140F  8B45F4            mov eax,[ebp-0xc]
00001412  83E801            sub eax,byte +0x1
00001415  50                push eax
00001416  6A00              push byte +0x0
00001418  E8DCFEFFFF        call 0x12f9
0000141D  83C408            add esp,byte +0x8
00001420  0500800B00        add eax,0xb8000
00001425  89C3              mov ebx,eax
00001427  FF75F4            push dword [ebp-0xc]
0000142A  6A00              push byte +0x0
0000142C  E8C8FEFFFF        call 0x12f9
00001431  83C408            add esp,byte +0x8
00001434  0500800B00        add eax,0xb8000
00001439  68A0000000        push dword 0xa0
0000143E  53                push ebx
0000143F  50                push eax
00001440  E8D2FDFFFF        call 0x1217
00001445  83C40C            add esp,byte +0xc
00001448  8345F401          add dword [ebp-0xc],byte +0x1
0000144C  837DF418          cmp dword [ebp-0xc],byte +0x18
00001450  7EBD              jng 0x140f
00001452  6A18              push byte +0x18
00001454  6A00              push byte +0x0
00001456  E89EFEFFFF        call 0x12f9
0000145B  83C408            add esp,byte +0x8
0000145E  0500800B00        add eax,0xb8000
00001463  8945F8            mov [ebp-0x8],eax
00001466  C745F400000000    mov dword [ebp-0xc],0x0
0000146D  EB0F              jmp short 0x147e
0000146F  8B55F4            mov edx,[ebp-0xc]
00001472  8B45F8            mov eax,[ebp-0x8]
00001475  01D0              add eax,edx
00001477  C60000            mov byte [eax],0x0
0000147A  8345F401          add dword [ebp-0xc],byte +0x1
0000147E  817DF49F000000    cmp dword [ebp-0xc],0x9f
00001485  7EE8              jng 0x146f
00001487  816D08A0000000    sub dword [ebp+0x8],0xa0
0000148E  8B4508            mov eax,[ebp+0x8]
00001491  8B5DFC            mov ebx,[ebp-0x4]
00001494  C9                leave
00001495  C3                ret
00001496  55                push ebp
00001497  89E5              mov ebp,esp
00001499  83EC18            sub esp,byte +0x18
0000149C  E869020000        call 0x170a
000014A1  05532D0000        add eax,0x2d53
000014A6  8B5508            mov edx,[ebp+0x8]
000014A9  8B4514            mov eax,[ebp+0x14]
000014AC  8855EC            mov [ebp-0x14],dl
000014AF  8845E8            mov [ebp-0x18],al
000014B2  C745F800800B00    mov dword [ebp-0x8],0xb8000
000014B9  807DE800          cmp byte [ebp-0x18],0x0
000014BD  7504              jnz 0x14c3
000014BF  C645E80F          mov byte [ebp-0x18],0xf
000014C3  837D0C00          cmp dword [ebp+0xc],byte +0x0
000014C7  7819              js 0x14e2
000014C9  837D1000          cmp dword [ebp+0x10],byte +0x0
000014CD  7813              js 0x14e2
000014CF  FF7510            push dword [ebp+0x10]
000014D2  FF750C            push dword [ebp+0xc]
000014D5  E81FFEFFFF        call 0x12f9
000014DA  83C408            add esp,byte +0x8
000014DD  8945F4            mov [ebp-0xc],eax
000014E0  EB08              jmp short 0x14ea
000014E2  E837FEFFFF        call 0x131e
000014E7  8945F4            mov [ebp-0xc],eax
000014EA  807DEC0A          cmp byte [ebp-0x14],0xa
000014EE  752D              jnz 0x151d
000014F0  8B4DF4            mov ecx,[ebp-0xc]
000014F3  BA67666666        mov edx,0x66666667
000014F8  89C8              mov eax,ecx
000014FA  F7EA              imul edx
000014FC  89D0              mov eax,edx
000014FE  C1F806            sar eax,byte 0x6
00001501  C1F91F            sar ecx,byte 0x1f
00001504  89CA              mov edx,ecx
00001506  29D0              sub eax,edx
00001508  8945FC            mov [ebp-0x4],eax
0000150B  FF75FC            push dword [ebp-0x4]
0000150E  6A4F              push byte +0x4f
00001510  E8E4FDFFFF        call 0x12f9
00001515  83C408            add esp,byte +0x8
00001518  8945F4            mov [ebp-0xc],eax
0000151B  EB1F              jmp short 0x153c
0000151D  8B55F4            mov edx,[ebp-0xc]
00001520  8B45F8            mov eax,[ebp-0x8]
00001523  01C2              add edx,eax
00001525  0FB645EC          movzx eax,byte [ebp-0x14]
00001529  8802              mov [edx],al
0000152B  8B45F4            mov eax,[ebp-0xc]
0000152E  8D5001            lea edx,[eax+0x1]
00001531  8B45F8            mov eax,[ebp-0x8]
00001534  01C2              add edx,eax
00001536  0FB645E8          movzx eax,byte [ebp-0x18]
0000153A  8802              mov [edx],al
0000153C  8345F402          add dword [ebp-0xc],byte +0x2
00001540  FF75F4            push dword [ebp-0xc]
00001543  E89CFEFFFF        call 0x13e4
00001548  83C404            add esp,byte +0x4
0000154B  8945F4            mov [ebp-0xc],eax
0000154E  FF75F4            push dword [ebp-0xc]
00001551  E826FEFFFF        call 0x137c
00001556  83C404            add esp,byte +0x4
00001559  90                nop
0000155A  C9                leave
0000155B  C3                ret
0000155C  55                push ebp
0000155D  89E5              mov ebp,esp
0000155F  83EC10            sub esp,byte +0x10
00001562  E8A3010000        call 0x170a
00001567  058D2C0000        add eax,0x2c8d
0000156C  C745F800000000    mov dword [ebp-0x8],0x0
00001573  C745FC00000000    mov dword [ebp-0x4],0x0
0000157A  C745F800000000    mov dword [ebp-0x8],0x0
00001581  EB29              jmp short 0x15ac
00001583  C745FC00000000    mov dword [ebp-0x4],0x0
0000158A  EB16              jmp short 0x15a2
0000158C  6A0F              push byte +0xf
0000158E  FF75F8            push dword [ebp-0x8]
00001591  FF75FC            push dword [ebp-0x4]
00001594  6A20              push byte +0x20
00001596  E8FBFEFFFF        call 0x1496
0000159B  83C410            add esp,byte +0x10
0000159E  8345FC01          add dword [ebp-0x4],byte +0x1
000015A2  837DFC4F          cmp dword [ebp-0x4],byte +0x4f
000015A6  7EE4              jng 0x158c
000015A8  8345F801          add dword [ebp-0x8],byte +0x1
000015AC  837DF818          cmp dword [ebp-0x8],byte +0x18
000015B0  7ED1              jng 0x1583
000015B2  6A00              push byte +0x0
000015B4  6A00              push byte +0x0
000015B6  E83EFDFFFF        call 0x12f9
000015BB  83C408            add esp,byte +0x8
000015BE  50                push eax
000015BF  E8B8FDFFFF        call 0x137c
000015C4  83C404            add esp,byte +0x4
000015C7  90                nop
000015C8  C9                leave
000015C9  C3                ret
000015CA  55                push ebp
000015CB  89E5              mov ebp,esp
000015CD  83EC10            sub esp,byte +0x10
000015D0  E835010000        call 0x170a
000015D5  051F2C0000        add eax,0x2c1f
000015DA  837D0C00          cmp dword [ebp+0xc],byte +0x0
000015DE  781D              js 0x15fd
000015E0  837D1000          cmp dword [ebp+0x10],byte +0x0
000015E4  7817              js 0x15fd
000015E6  FF7510            push dword [ebp+0x10]
000015E9  FF750C            push dword [ebp+0xc]
000015EC  E808FDFFFF        call 0x12f9
000015F1  83C408            add esp,byte +0x8
000015F4  50                push eax
000015F5  E882FDFFFF        call 0x137c
000015FA  83C404            add esp,byte +0x4
000015FD  C745FC00000000    mov dword [ebp-0x4],0x0
00001604  EB21              jmp short 0x1627
00001606  8B55FC            mov edx,[ebp-0x4]
00001609  8B4508            mov eax,[ebp+0x8]
0000160C  01D0              add eax,edx
0000160E  0FB600            movzx eax,byte [eax]
00001611  0FBEC0            movsx eax,al
00001614  6A0F              push byte +0xf
00001616  6AFF              push byte -0x1
00001618  6AFF              push byte -0x1
0000161A  50                push eax
0000161B  E876FEFFFF        call 0x1496
00001620  83C410            add esp,byte +0x10
00001623  8345FC01          add dword [ebp-0x4],byte +0x1
00001627  8B55FC            mov edx,[ebp-0x4]
0000162A  8B4508            mov eax,[ebp+0x8]
0000162D  01D0              add eax,edx
0000162F  0FB600            movzx eax,byte [eax]
00001632  84C0              test al,al
00001634  75D0              jnz 0x1606
00001636  90                nop
00001637  90                nop
00001638  C9                leave
00001639  C3                ret
0000163A  55                push ebp
0000163B  89E5              mov ebp,esp
0000163D  E8C8000000        call 0x170a
00001642  05B22B0000        add eax,0x2bb2
00001647  6AFF              push byte -0x1
00001649  6AFF              push byte -0x1
0000164B  FF7508            push dword [ebp+0x8]
0000164E  E877FFFFFF        call 0x15ca
00001653  83C40C            add esp,byte +0xc
00001656  90                nop
00001657  C9                leave
00001658  C3                ret
00001659  55                push ebp
0000165A  89E5              mov ebp,esp
0000165C  E8A9000000        call 0x170a
00001661  05932B0000        add eax,0x2b93
00001666  6A0F              push byte +0xf
00001668  6A00              push byte +0x0
0000166A  6A00              push byte +0x0
0000166C  6A23              push byte +0x23
0000166E  E823FEFFFF        call 0x1496
00001673  83C410            add esp,byte +0x10
00001676  EBFE              jmp short 0x1676
00001678  8D4C2404          lea ecx,[esp+0x4]
0000167C  83E4F0            and esp,byte -0x10
0000167F  FF71FC            push dword [ecx-0x4]
00001682  55                push ebp
00001683  89E5              mov ebp,esp
00001685  51                push ecx
00001686  83EC24            sub esp,byte +0x24
00001689  E87C000000        call 0x170a
0000168E  05662B0000        add eax,0x2b66
00001693  65A114000000      mov eax,[gs:0x14]
00001699  8945F4            mov [ebp-0xc],eax
0000169C  31C0              xor eax,eax
0000169E  C645D861          mov byte [ebp-0x28],0x61
000016A2  C645D962          mov byte [ebp-0x27],0x62
000016A6  C645DA63          mov byte [ebp-0x26],0x63
000016AA  C645DB64          mov byte [ebp-0x25],0x64
000016AE  C745EA4869204B    mov dword [ebp-0x16],0x4b206948
000016B5  C745EE65726E65    mov dword [ebp-0x12],0x656e7265
000016BC  66C745F26C00      mov word [ebp-0xe],0x6c
000016C2  C745E674687300    mov dword [ebp-0x1a],0x736874
000016C9  C745DC03000000    mov dword [ebp-0x24],0x3
000016D0  C745E006000000    mov dword [ebp-0x20],0x6
000016D7  E880FEFFFF        call 0x155c
000016DC  6A00              push byte +0x0
000016DE  6A00              push byte +0x0
000016E0  8D45EA            lea eax,[ebp-0x16]
000016E3  50                push eax
000016E4  E8E1FEFFFF        call 0x15ca
000016E9  83C40C            add esp,byte +0xc
000016EC  B801000000        mov eax,0x1
000016F1  8B55F4            mov edx,[ebp-0xc]
000016F4  652B1514000000    sub edx,[dword gs:0x14]
000016FB  7405              jz 0x1702
000016FD  E857FFFFFF        call 0x1659
00001702  8B4DFC            mov ecx,[ebp-0x4]
00001705  C9                leave
00001706  8D61FC            lea esp,[ecx-0x4]
00001709  C3                ret
0000170A  8B0424            mov eax,[esp]
0000170D  C3                ret
0000170E  0000              add [eax],al
00001710  0000              add [eax],al
00001712  0000              add [eax],al
00001714  0000              add [eax],al
00001716  0000              add [eax],al
00001718  0000              add [eax],al
0000171A  0000              add [eax],al
0000171C  0000              add [eax],al
0000171E  0000              add [eax],al
00001720  0000              add [eax],al
00001722  0000              add [eax],al
00001724  0000              add [eax],al
00001726  0000              add [eax],al
00001728  0000              add [eax],al
0000172A  0000              add [eax],al
0000172C  0000              add [eax],al
0000172E  0000              add [eax],al
00001730  0000              add [eax],al
00001732  0000              add [eax],al
00001734  0000              add [eax],al
00001736  0000              add [eax],al
00001738  0000              add [eax],al
0000173A  0000              add [eax],al
0000173C  0000              add [eax],al
0000173E  0000              add [eax],al
00001740  0000              add [eax],al
00001742  0000              add [eax],al
00001744  0000              add [eax],al
00001746  0000              add [eax],al
00001748  0000              add [eax],al
0000174A  0000              add [eax],al
0000174C  0000              add [eax],al
0000174E  0000              add [eax],al
00001750  0000              add [eax],al
00001752  0000              add [eax],al
00001754  0000              add [eax],al
00001756  0000              add [eax],al
00001758  0000              add [eax],al
0000175A  0000              add [eax],al
0000175C  0000              add [eax],al
0000175E  0000              add [eax],al
00001760  0000              add [eax],al
00001762  0000              add [eax],al
00001764  0000              add [eax],al
00001766  0000              add [eax],al
00001768  0000              add [eax],al
0000176A  0000              add [eax],al
0000176C  0000              add [eax],al
0000176E  0000              add [eax],al
00001770  0000              add [eax],al
00001772  0000              add [eax],al
00001774  0000              add [eax],al
00001776  0000              add [eax],al
00001778  0000              add [eax],al
0000177A  0000              add [eax],al
0000177C  0000              add [eax],al
0000177E  0000              add [eax],al
00001780  0000              add [eax],al
00001782  0000              add [eax],al
00001784  0000              add [eax],al
00001786  0000              add [eax],al
00001788  0000              add [eax],al
0000178A  0000              add [eax],al
0000178C  0000              add [eax],al
0000178E  0000              add [eax],al
00001790  0000              add [eax],al
00001792  0000              add [eax],al
00001794  0000              add [eax],al
00001796  0000              add [eax],al
00001798  0000              add [eax],al
0000179A  0000              add [eax],al
0000179C  0000              add [eax],al
0000179E  0000              add [eax],al
000017A0  0000              add [eax],al
000017A2  0000              add [eax],al
000017A4  0000              add [eax],al
000017A6  0000              add [eax],al
000017A8  0000              add [eax],al
000017AA  0000              add [eax],al
000017AC  0000              add [eax],al
000017AE  0000              add [eax],al
000017B0  0000              add [eax],al
000017B2  0000              add [eax],al
000017B4  0000              add [eax],al
000017B6  0000              add [eax],al
000017B8  0000              add [eax],al
000017BA  0000              add [eax],al
000017BC  0000              add [eax],al
000017BE  0000              add [eax],al
000017C0  0000              add [eax],al
000017C2  0000              add [eax],al
000017C4  0000              add [eax],al
000017C6  0000              add [eax],al
000017C8  0000              add [eax],al
000017CA  0000              add [eax],al
000017CC  0000              add [eax],al
000017CE  0000              add [eax],al
000017D0  0000              add [eax],al
000017D2  0000              add [eax],al
000017D4  0000              add [eax],al
000017D6  0000              add [eax],al
000017D8  0000              add [eax],al
000017DA  0000              add [eax],al
000017DC  0000              add [eax],al
000017DE  0000              add [eax],al
000017E0  0000              add [eax],al
000017E2  0000              add [eax],al
000017E4  0000              add [eax],al
000017E6  0000              add [eax],al
000017E8  0000              add [eax],al
000017EA  0000              add [eax],al
000017EC  0000              add [eax],al
000017EE  0000              add [eax],al
000017F0  0000              add [eax],al
000017F2  0000              add [eax],al
000017F4  0000              add [eax],al
000017F6  0000              add [eax],al
000017F8  0000              add [eax],al
000017FA  0000              add [eax],al
000017FC  0000              add [eax],al
000017FE  0000              add [eax],al
00001800  0000              add [eax],al
00001802  0000              add [eax],al
00001804  0000              add [eax],al
00001806  0000              add [eax],al
00001808  0000              add [eax],al
0000180A  0000              add [eax],al
0000180C  0000              add [eax],al
0000180E  0000              add [eax],al
00001810  0000              add [eax],al
00001812  0000              add [eax],al
00001814  0000              add [eax],al
00001816  0000              add [eax],al
00001818  0000              add [eax],al
0000181A  0000              add [eax],al
0000181C  0000              add [eax],al
0000181E  0000              add [eax],al
00001820  0000              add [eax],al
00001822  0000              add [eax],al
00001824  0000              add [eax],al
00001826  0000              add [eax],al
00001828  0000              add [eax],al
0000182A  0000              add [eax],al
0000182C  0000              add [eax],al
0000182E  0000              add [eax],al
00001830  0000              add [eax],al
00001832  0000              add [eax],al
00001834  0000              add [eax],al
00001836  0000              add [eax],al
00001838  0000              add [eax],al
0000183A  0000              add [eax],al
0000183C  0000              add [eax],al
0000183E  0000              add [eax],al
00001840  0000              add [eax],al
00001842  0000              add [eax],al
00001844  0000              add [eax],al
00001846  0000              add [eax],al
00001848  0000              add [eax],al
0000184A  0000              add [eax],al
0000184C  0000              add [eax],al
0000184E  0000              add [eax],al
00001850  0000              add [eax],al
00001852  0000              add [eax],al
00001854  0000              add [eax],al
00001856  0000              add [eax],al
00001858  0000              add [eax],al
0000185A  0000              add [eax],al
0000185C  0000              add [eax],al
0000185E  0000              add [eax],al
00001860  0000              add [eax],al
00001862  0000              add [eax],al
00001864  0000              add [eax],al
00001866  0000              add [eax],al
00001868  0000              add [eax],al
0000186A  0000              add [eax],al
0000186C  0000              add [eax],al
0000186E  0000              add [eax],al
00001870  0000              add [eax],al
00001872  0000              add [eax],al
00001874  0000              add [eax],al
00001876  0000              add [eax],al
00001878  0000              add [eax],al
0000187A  0000              add [eax],al
0000187C  0000              add [eax],al
0000187E  0000              add [eax],al
00001880  0000              add [eax],al
00001882  0000              add [eax],al
00001884  0000              add [eax],al
00001886  0000              add [eax],al
00001888  0000              add [eax],al
0000188A  0000              add [eax],al
0000188C  0000              add [eax],al
0000188E  0000              add [eax],al
00001890  0000              add [eax],al
00001892  0000              add [eax],al
00001894  0000              add [eax],al
00001896  0000              add [eax],al
00001898  0000              add [eax],al
0000189A  0000              add [eax],al
0000189C  0000              add [eax],al
0000189E  0000              add [eax],al
000018A0  0000              add [eax],al
000018A2  0000              add [eax],al
000018A4  0000              add [eax],al
000018A6  0000              add [eax],al
000018A8  0000              add [eax],al
000018AA  0000              add [eax],al
000018AC  0000              add [eax],al
000018AE  0000              add [eax],al
000018B0  0000              add [eax],al
000018B2  0000              add [eax],al
000018B4  0000              add [eax],al
000018B6  0000              add [eax],al
000018B8  0000              add [eax],al
000018BA  0000              add [eax],al
000018BC  0000              add [eax],al
000018BE  0000              add [eax],al
000018C0  0000              add [eax],al
000018C2  0000              add [eax],al
000018C4  0000              add [eax],al
000018C6  0000              add [eax],al
000018C8  0000              add [eax],al
000018CA  0000              add [eax],al
000018CC  0000              add [eax],al
000018CE  0000              add [eax],al
000018D0  0000              add [eax],al
000018D2  0000              add [eax],al
000018D4  0000              add [eax],al
000018D6  0000              add [eax],al
000018D8  0000              add [eax],al
000018DA  0000              add [eax],al
000018DC  0000              add [eax],al
000018DE  0000              add [eax],al
000018E0  0000              add [eax],al
000018E2  0000              add [eax],al
000018E4  0000              add [eax],al
000018E6  0000              add [eax],al
000018E8  0000              add [eax],al
000018EA  0000              add [eax],al
000018EC  0000              add [eax],al
000018EE  0000              add [eax],al
000018F0  0000              add [eax],al
000018F2  0000              add [eax],al
000018F4  0000              add [eax],al
000018F6  0000              add [eax],al
000018F8  0000              add [eax],al
000018FA  0000              add [eax],al
000018FC  0000              add [eax],al
000018FE  0000              add [eax],al
00001900  0000              add [eax],al
00001902  0000              add [eax],al
00001904  0000              add [eax],al
00001906  0000              add [eax],al
00001908  0000              add [eax],al
0000190A  0000              add [eax],al
0000190C  0000              add [eax],al
0000190E  0000              add [eax],al
00001910  0000              add [eax],al
00001912  0000              add [eax],al
00001914  0000              add [eax],al
00001916  0000              add [eax],al
00001918  0000              add [eax],al
0000191A  0000              add [eax],al
0000191C  0000              add [eax],al
0000191E  0000              add [eax],al
00001920  0000              add [eax],al
00001922  0000              add [eax],al
00001924  0000              add [eax],al
00001926  0000              add [eax],al
00001928  0000              add [eax],al
0000192A  0000              add [eax],al
0000192C  0000              add [eax],al
0000192E  0000              add [eax],al
00001930  0000              add [eax],al
00001932  0000              add [eax],al
00001934  0000              add [eax],al
00001936  0000              add [eax],al
00001938  0000              add [eax],al
0000193A  0000              add [eax],al
0000193C  0000              add [eax],al
0000193E  0000              add [eax],al
00001940  0000              add [eax],al
00001942  0000              add [eax],al
00001944  0000              add [eax],al
00001946  0000              add [eax],al
00001948  0000              add [eax],al
0000194A  0000              add [eax],al
0000194C  0000              add [eax],al
0000194E  0000              add [eax],al
00001950  0000              add [eax],al
00001952  0000              add [eax],al
00001954  0000              add [eax],al
00001956  0000              add [eax],al
00001958  0000              add [eax],al
0000195A  0000              add [eax],al
0000195C  0000              add [eax],al
0000195E  0000              add [eax],al
00001960  0000              add [eax],al
00001962  0000              add [eax],al
00001964  0000              add [eax],al
00001966  0000              add [eax],al
00001968  0000              add [eax],al
0000196A  0000              add [eax],al
0000196C  0000              add [eax],al
0000196E  0000              add [eax],al
00001970  0000              add [eax],al
00001972  0000              add [eax],al
00001974  0000              add [eax],al
00001976  0000              add [eax],al
00001978  0000              add [eax],al
0000197A  0000              add [eax],al
0000197C  0000              add [eax],al
0000197E  0000              add [eax],al
00001980  0000              add [eax],al
00001982  0000              add [eax],al
00001984  0000              add [eax],al
00001986  0000              add [eax],al
00001988  0000              add [eax],al
0000198A  0000              add [eax],al
0000198C  0000              add [eax],al
0000198E  0000              add [eax],al
00001990  0000              add [eax],al
00001992  0000              add [eax],al
00001994  0000              add [eax],al
00001996  0000              add [eax],al
00001998  0000              add [eax],al
0000199A  0000              add [eax],al
0000199C  0000              add [eax],al
0000199E  0000              add [eax],al
000019A0  0000              add [eax],al
000019A2  0000              add [eax],al
000019A4  0000              add [eax],al
000019A6  0000              add [eax],al
000019A8  0000              add [eax],al
000019AA  0000              add [eax],al
000019AC  0000              add [eax],al
000019AE  0000              add [eax],al
000019B0  0000              add [eax],al
000019B2  0000              add [eax],al
000019B4  0000              add [eax],al
000019B6  0000              add [eax],al
000019B8  0000              add [eax],al
000019BA  0000              add [eax],al
000019BC  0000              add [eax],al
000019BE  0000              add [eax],al
000019C0  0000              add [eax],al
000019C2  0000              add [eax],al
000019C4  0000              add [eax],al
000019C6  0000              add [eax],al
000019C8  0000              add [eax],al
000019CA  0000              add [eax],al
000019CC  0000              add [eax],al
000019CE  0000              add [eax],al
000019D0  0000              add [eax],al
000019D2  0000              add [eax],al
000019D4  0000              add [eax],al
000019D6  0000              add [eax],al
000019D8  0000              add [eax],al
000019DA  0000              add [eax],al
000019DC  0000              add [eax],al
000019DE  0000              add [eax],al
000019E0  0000              add [eax],al
000019E2  0000              add [eax],al
000019E4  0000              add [eax],al
000019E6  0000              add [eax],al
000019E8  0000              add [eax],al
000019EA  0000              add [eax],al
000019EC  0000              add [eax],al
000019EE  0000              add [eax],al
000019F0  0000              add [eax],al
000019F2  0000              add [eax],al
000019F4  0000              add [eax],al
000019F6  0000              add [eax],al
000019F8  0000              add [eax],al
000019FA  0000              add [eax],al
000019FC  0000              add [eax],al
000019FE  0000              add [eax],al
00001A00  0000              add [eax],al
00001A02  0000              add [eax],al
00001A04  0000              add [eax],al
00001A06  0000              add [eax],al
00001A08  0000              add [eax],al
00001A0A  0000              add [eax],al
00001A0C  0000              add [eax],al
00001A0E  0000              add [eax],al
00001A10  0000              add [eax],al
00001A12  0000              add [eax],al
00001A14  0000              add [eax],al
00001A16  0000              add [eax],al
00001A18  0000              add [eax],al
00001A1A  0000              add [eax],al
00001A1C  0000              add [eax],al
00001A1E  0000              add [eax],al
00001A20  0000              add [eax],al
00001A22  0000              add [eax],al
00001A24  0000              add [eax],al
00001A26  0000              add [eax],al
00001A28  0000              add [eax],al
00001A2A  0000              add [eax],al
00001A2C  0000              add [eax],al
00001A2E  0000              add [eax],al
00001A30  0000              add [eax],al
00001A32  0000              add [eax],al
00001A34  0000              add [eax],al
00001A36  0000              add [eax],al
00001A38  0000              add [eax],al
00001A3A  0000              add [eax],al
00001A3C  0000              add [eax],al
00001A3E  0000              add [eax],al
00001A40  0000              add [eax],al
00001A42  0000              add [eax],al
00001A44  0000              add [eax],al
00001A46  0000              add [eax],al
00001A48  0000              add [eax],al
00001A4A  0000              add [eax],al
00001A4C  0000              add [eax],al
00001A4E  0000              add [eax],al
00001A50  0000              add [eax],al
00001A52  0000              add [eax],al
00001A54  0000              add [eax],al
00001A56  0000              add [eax],al
00001A58  0000              add [eax],al
00001A5A  0000              add [eax],al
00001A5C  0000              add [eax],al
00001A5E  0000              add [eax],al
00001A60  0000              add [eax],al
00001A62  0000              add [eax],al
00001A64  0000              add [eax],al
00001A66  0000              add [eax],al
00001A68  0000              add [eax],al
00001A6A  0000              add [eax],al
00001A6C  0000              add [eax],al
00001A6E  0000              add [eax],al
00001A70  0000              add [eax],al
00001A72  0000              add [eax],al
00001A74  0000              add [eax],al
00001A76  0000              add [eax],al
00001A78  0000              add [eax],al
00001A7A  0000              add [eax],al
00001A7C  0000              add [eax],al
00001A7E  0000              add [eax],al
00001A80  0000              add [eax],al
00001A82  0000              add [eax],al
00001A84  0000              add [eax],al
00001A86  0000              add [eax],al
00001A88  0000              add [eax],al
00001A8A  0000              add [eax],al
00001A8C  0000              add [eax],al
00001A8E  0000              add [eax],al
00001A90  0000              add [eax],al
00001A92  0000              add [eax],al
00001A94  0000              add [eax],al
00001A96  0000              add [eax],al
00001A98  0000              add [eax],al
00001A9A  0000              add [eax],al
00001A9C  0000              add [eax],al
00001A9E  0000              add [eax],al
00001AA0  0000              add [eax],al
00001AA2  0000              add [eax],al
00001AA4  0000              add [eax],al
00001AA6  0000              add [eax],al
00001AA8  0000              add [eax],al
00001AAA  0000              add [eax],al
00001AAC  0000              add [eax],al
00001AAE  0000              add [eax],al
00001AB0  0000              add [eax],al
00001AB2  0000              add [eax],al
00001AB4  0000              add [eax],al
00001AB6  0000              add [eax],al
00001AB8  0000              add [eax],al
00001ABA  0000              add [eax],al
00001ABC  0000              add [eax],al
00001ABE  0000              add [eax],al
00001AC0  0000              add [eax],al
00001AC2  0000              add [eax],al
00001AC4  0000              add [eax],al
00001AC6  0000              add [eax],al
00001AC8  0000              add [eax],al
00001ACA  0000              add [eax],al
00001ACC  0000              add [eax],al
00001ACE  0000              add [eax],al
00001AD0  0000              add [eax],al
00001AD2  0000              add [eax],al
00001AD4  0000              add [eax],al
00001AD6  0000              add [eax],al
00001AD8  0000              add [eax],al
00001ADA  0000              add [eax],al
00001ADC  0000              add [eax],al
00001ADE  0000              add [eax],al
00001AE0  0000              add [eax],al
00001AE2  0000              add [eax],al
00001AE4  0000              add [eax],al
00001AE6  0000              add [eax],al
00001AE8  0000              add [eax],al
00001AEA  0000              add [eax],al
00001AEC  0000              add [eax],al
00001AEE  0000              add [eax],al
00001AF0  0000              add [eax],al
00001AF2  0000              add [eax],al
00001AF4  0000              add [eax],al
00001AF6  0000              add [eax],al
00001AF8  0000              add [eax],al
00001AFA  0000              add [eax],al
00001AFC  0000              add [eax],al
00001AFE  0000              add [eax],al
00001B00  0000              add [eax],al
00001B02  0000              add [eax],al
00001B04  0000              add [eax],al
00001B06  0000              add [eax],al
00001B08  0000              add [eax],al
00001B0A  0000              add [eax],al
00001B0C  0000              add [eax],al
00001B0E  0000              add [eax],al
00001B10  0000              add [eax],al
00001B12  0000              add [eax],al
00001B14  0000              add [eax],al
00001B16  0000              add [eax],al
00001B18  0000              add [eax],al
00001B1A  0000              add [eax],al
00001B1C  0000              add [eax],al
00001B1E  0000              add [eax],al
00001B20  0000              add [eax],al
00001B22  0000              add [eax],al
00001B24  0000              add [eax],al
00001B26  0000              add [eax],al
00001B28  0000              add [eax],al
00001B2A  0000              add [eax],al
00001B2C  0000              add [eax],al
00001B2E  0000              add [eax],al
00001B30  0000              add [eax],al
00001B32  0000              add [eax],al
00001B34  0000              add [eax],al
00001B36  0000              add [eax],al
00001B38  0000              add [eax],al
00001B3A  0000              add [eax],al
00001B3C  0000              add [eax],al
00001B3E  0000              add [eax],al
00001B40  0000              add [eax],al
00001B42  0000              add [eax],al
00001B44  0000              add [eax],al
00001B46  0000              add [eax],al
00001B48  0000              add [eax],al
00001B4A  0000              add [eax],al
00001B4C  0000              add [eax],al
00001B4E  0000              add [eax],al
00001B50  0000              add [eax],al
00001B52  0000              add [eax],al
00001B54  0000              add [eax],al
00001B56  0000              add [eax],al
00001B58  0000              add [eax],al
00001B5A  0000              add [eax],al
00001B5C  0000              add [eax],al
00001B5E  0000              add [eax],al
00001B60  0000              add [eax],al
00001B62  0000              add [eax],al
00001B64  0000              add [eax],al
00001B66  0000              add [eax],al
00001B68  0000              add [eax],al
00001B6A  0000              add [eax],al
00001B6C  0000              add [eax],al
00001B6E  0000              add [eax],al
00001B70  0000              add [eax],al
00001B72  0000              add [eax],al
00001B74  0000              add [eax],al
00001B76  0000              add [eax],al
00001B78  0000              add [eax],al
00001B7A  0000              add [eax],al
00001B7C  0000              add [eax],al
00001B7E  0000              add [eax],al
00001B80  0000              add [eax],al
00001B82  0000              add [eax],al
00001B84  0000              add [eax],al
00001B86  0000              add [eax],al
00001B88  0000              add [eax],al
00001B8A  0000              add [eax],al
00001B8C  0000              add [eax],al
00001B8E  0000              add [eax],al
00001B90  0000              add [eax],al
00001B92  0000              add [eax],al
00001B94  0000              add [eax],al
00001B96  0000              add [eax],al
00001B98  0000              add [eax],al
00001B9A  0000              add [eax],al
00001B9C  0000              add [eax],al
00001B9E  0000              add [eax],al
00001BA0  0000              add [eax],al
00001BA2  0000              add [eax],al
00001BA4  0000              add [eax],al
00001BA6  0000              add [eax],al
00001BA8  0000              add [eax],al
00001BAA  0000              add [eax],al
00001BAC  0000              add [eax],al
00001BAE  0000              add [eax],al
00001BB0  0000              add [eax],al
00001BB2  0000              add [eax],al
00001BB4  0000              add [eax],al
00001BB6  0000              add [eax],al
00001BB8  0000              add [eax],al
00001BBA  0000              add [eax],al
00001BBC  0000              add [eax],al
00001BBE  0000              add [eax],al
00001BC0  0000              add [eax],al
00001BC2  0000              add [eax],al
00001BC4  0000              add [eax],al
00001BC6  0000              add [eax],al
00001BC8  0000              add [eax],al
00001BCA  0000              add [eax],al
00001BCC  0000              add [eax],al
00001BCE  0000              add [eax],al
00001BD0  0000              add [eax],al
00001BD2  0000              add [eax],al
00001BD4  0000              add [eax],al
00001BD6  0000              add [eax],al
00001BD8  0000              add [eax],al
00001BDA  0000              add [eax],al
00001BDC  0000              add [eax],al
00001BDE  0000              add [eax],al
00001BE0  0000              add [eax],al
00001BE2  0000              add [eax],al
00001BE4  0000              add [eax],al
00001BE6  0000              add [eax],al
00001BE8  0000              add [eax],al
00001BEA  0000              add [eax],al
00001BEC  0000              add [eax],al
00001BEE  0000              add [eax],al
00001BF0  0000              add [eax],al
00001BF2  0000              add [eax],al
00001BF4  0000              add [eax],al
00001BF6  0000              add [eax],al
00001BF8  0000              add [eax],al
00001BFA  0000              add [eax],al
00001BFC  0000              add [eax],al
00001BFE  0000              add [eax],al
00001C00  0000              add [eax],al
00001C02  0000              add [eax],al
00001C04  0000              add [eax],al
00001C06  0000              add [eax],al
00001C08  0000              add [eax],al
00001C0A  0000              add [eax],al
00001C0C  0000              add [eax],al
00001C0E  0000              add [eax],al
00001C10  0000              add [eax],al
00001C12  0000              add [eax],al
00001C14  0000              add [eax],al
00001C16  0000              add [eax],al
00001C18  0000              add [eax],al
00001C1A  0000              add [eax],al
00001C1C  0000              add [eax],al
00001C1E  0000              add [eax],al
00001C20  0000              add [eax],al
00001C22  0000              add [eax],al
00001C24  0000              add [eax],al
00001C26  0000              add [eax],al
00001C28  0000              add [eax],al
00001C2A  0000              add [eax],al
00001C2C  0000              add [eax],al
00001C2E  0000              add [eax],al
00001C30  0000              add [eax],al
00001C32  0000              add [eax],al
00001C34  0000              add [eax],al
00001C36  0000              add [eax],al
00001C38  0000              add [eax],al
00001C3A  0000              add [eax],al
00001C3C  0000              add [eax],al
00001C3E  0000              add [eax],al
00001C40  0000              add [eax],al
00001C42  0000              add [eax],al
00001C44  0000              add [eax],al
00001C46  0000              add [eax],al
00001C48  0000              add [eax],al
00001C4A  0000              add [eax],al
00001C4C  0000              add [eax],al
00001C4E  0000              add [eax],al
00001C50  0000              add [eax],al
00001C52  0000              add [eax],al
00001C54  0000              add [eax],al
00001C56  0000              add [eax],al
00001C58  0000              add [eax],al
00001C5A  0000              add [eax],al
00001C5C  0000              add [eax],al
00001C5E  0000              add [eax],al
00001C60  0000              add [eax],al
00001C62  0000              add [eax],al
00001C64  0000              add [eax],al
00001C66  0000              add [eax],al
00001C68  0000              add [eax],al
00001C6A  0000              add [eax],al
00001C6C  0000              add [eax],al
00001C6E  0000              add [eax],al
00001C70  0000              add [eax],al
00001C72  0000              add [eax],al
00001C74  0000              add [eax],al
00001C76  0000              add [eax],al
00001C78  0000              add [eax],al
00001C7A  0000              add [eax],al
00001C7C  0000              add [eax],al
00001C7E  0000              add [eax],al
00001C80  0000              add [eax],al
00001C82  0000              add [eax],al
00001C84  0000              add [eax],al
00001C86  0000              add [eax],al
00001C88  0000              add [eax],al
00001C8A  0000              add [eax],al
00001C8C  0000              add [eax],al
00001C8E  0000              add [eax],al
00001C90  0000              add [eax],al
00001C92  0000              add [eax],al
00001C94  0000              add [eax],al
00001C96  0000              add [eax],al
00001C98  0000              add [eax],al
00001C9A  0000              add [eax],al
00001C9C  0000              add [eax],al
00001C9E  0000              add [eax],al
00001CA0  0000              add [eax],al
00001CA2  0000              add [eax],al
00001CA4  0000              add [eax],al
00001CA6  0000              add [eax],al
00001CA8  0000              add [eax],al
00001CAA  0000              add [eax],al
00001CAC  0000              add [eax],al
00001CAE  0000              add [eax],al
00001CB0  0000              add [eax],al
00001CB2  0000              add [eax],al
00001CB4  0000              add [eax],al
00001CB6  0000              add [eax],al
00001CB8  0000              add [eax],al
00001CBA  0000              add [eax],al
00001CBC  0000              add [eax],al
00001CBE  0000              add [eax],al
00001CC0  0000              add [eax],al
00001CC2  0000              add [eax],al
00001CC4  0000              add [eax],al
00001CC6  0000              add [eax],al
00001CC8  0000              add [eax],al
00001CCA  0000              add [eax],al
00001CCC  0000              add [eax],al
00001CCE  0000              add [eax],al
00001CD0  0000              add [eax],al
00001CD2  0000              add [eax],al
00001CD4  0000              add [eax],al
00001CD6  0000              add [eax],al
00001CD8  0000              add [eax],al
00001CDA  0000              add [eax],al
00001CDC  0000              add [eax],al
00001CDE  0000              add [eax],al
00001CE0  0000              add [eax],al
00001CE2  0000              add [eax],al
00001CE4  0000              add [eax],al
00001CE6  0000              add [eax],al
00001CE8  0000              add [eax],al
00001CEA  0000              add [eax],al
00001CEC  0000              add [eax],al
00001CEE  0000              add [eax],al
00001CF0  0000              add [eax],al
00001CF2  0000              add [eax],al
00001CF4  0000              add [eax],al
00001CF6  0000              add [eax],al
00001CF8  0000              add [eax],al
00001CFA  0000              add [eax],al
00001CFC  0000              add [eax],al
00001CFE  0000              add [eax],al
00001D00  0000              add [eax],al
00001D02  0000              add [eax],al
00001D04  0000              add [eax],al
00001D06  0000              add [eax],al
00001D08  0000              add [eax],al
00001D0A  0000              add [eax],al
00001D0C  0000              add [eax],al
00001D0E  0000              add [eax],al
00001D10  0000              add [eax],al
00001D12  0000              add [eax],al
00001D14  0000              add [eax],al
00001D16  0000              add [eax],al
00001D18  0000              add [eax],al
00001D1A  0000              add [eax],al
00001D1C  0000              add [eax],al
00001D1E  0000              add [eax],al
00001D20  0000              add [eax],al
00001D22  0000              add [eax],al
00001D24  0000              add [eax],al
00001D26  0000              add [eax],al
00001D28  0000              add [eax],al
00001D2A  0000              add [eax],al
00001D2C  0000              add [eax],al
00001D2E  0000              add [eax],al
00001D30  0000              add [eax],al
00001D32  0000              add [eax],al
00001D34  0000              add [eax],al
00001D36  0000              add [eax],al
00001D38  0000              add [eax],al
00001D3A  0000              add [eax],al
00001D3C  0000              add [eax],al
00001D3E  0000              add [eax],al
00001D40  0000              add [eax],al
00001D42  0000              add [eax],al
00001D44  0000              add [eax],al
00001D46  0000              add [eax],al
00001D48  0000              add [eax],al
00001D4A  0000              add [eax],al
00001D4C  0000              add [eax],al
00001D4E  0000              add [eax],al
00001D50  0000              add [eax],al
00001D52  0000              add [eax],al
00001D54  0000              add [eax],al
00001D56  0000              add [eax],al
00001D58  0000              add [eax],al
00001D5A  0000              add [eax],al
00001D5C  0000              add [eax],al
00001D5E  0000              add [eax],al
00001D60  0000              add [eax],al
00001D62  0000              add [eax],al
00001D64  0000              add [eax],al
00001D66  0000              add [eax],al
00001D68  0000              add [eax],al
00001D6A  0000              add [eax],al
00001D6C  0000              add [eax],al
00001D6E  0000              add [eax],al
00001D70  0000              add [eax],al
00001D72  0000              add [eax],al
00001D74  0000              add [eax],al
00001D76  0000              add [eax],al
00001D78  0000              add [eax],al
00001D7A  0000              add [eax],al
00001D7C  0000              add [eax],al
00001D7E  0000              add [eax],al
00001D80  0000              add [eax],al
00001D82  0000              add [eax],al
00001D84  0000              add [eax],al
00001D86  0000              add [eax],al
00001D88  0000              add [eax],al
00001D8A  0000              add [eax],al
00001D8C  0000              add [eax],al
00001D8E  0000              add [eax],al
00001D90  0000              add [eax],al
00001D92  0000              add [eax],al
00001D94  0000              add [eax],al
00001D96  0000              add [eax],al
00001D98  0000              add [eax],al
00001D9A  0000              add [eax],al
00001D9C  0000              add [eax],al
00001D9E  0000              add [eax],al
00001DA0  0000              add [eax],al
00001DA2  0000              add [eax],al
00001DA4  0000              add [eax],al
00001DA6  0000              add [eax],al
00001DA8  0000              add [eax],al
00001DAA  0000              add [eax],al
00001DAC  0000              add [eax],al
00001DAE  0000              add [eax],al
00001DB0  0000              add [eax],al
00001DB2  0000              add [eax],al
00001DB4  0000              add [eax],al
00001DB6  0000              add [eax],al
00001DB8  0000              add [eax],al
00001DBA  0000              add [eax],al
00001DBC  0000              add [eax],al
00001DBE  0000              add [eax],al
00001DC0  0000              add [eax],al
00001DC2  0000              add [eax],al
00001DC4  0000              add [eax],al
00001DC6  0000              add [eax],al
00001DC8  0000              add [eax],al
00001DCA  0000              add [eax],al
00001DCC  0000              add [eax],al
00001DCE  0000              add [eax],al
00001DD0  0000              add [eax],al
00001DD2  0000              add [eax],al
00001DD4  0000              add [eax],al
00001DD6  0000              add [eax],al
00001DD8  0000              add [eax],al
00001DDA  0000              add [eax],al
00001DDC  0000              add [eax],al
00001DDE  0000              add [eax],al
00001DE0  0000              add [eax],al
00001DE2  0000              add [eax],al
00001DE4  0000              add [eax],al
00001DE6  0000              add [eax],al
00001DE8  0000              add [eax],al
00001DEA  0000              add [eax],al
00001DEC  0000              add [eax],al
00001DEE  0000              add [eax],al
00001DF0  0000              add [eax],al
00001DF2  0000              add [eax],al
00001DF4  0000              add [eax],al
00001DF6  0000              add [eax],al
00001DF8  0000              add [eax],al
00001DFA  0000              add [eax],al
00001DFC  0000              add [eax],al
00001DFE  0000              add [eax],al
00001E00  0000              add [eax],al
00001E02  0000              add [eax],al
00001E04  0000              add [eax],al
00001E06  0000              add [eax],al
00001E08  0000              add [eax],al
00001E0A  0000              add [eax],al
00001E0C  0000              add [eax],al
00001E0E  0000              add [eax],al
00001E10  0000              add [eax],al
00001E12  0000              add [eax],al
00001E14  0000              add [eax],al
00001E16  0000              add [eax],al
00001E18  0000              add [eax],al
00001E1A  0000              add [eax],al
00001E1C  0000              add [eax],al
00001E1E  0000              add [eax],al
00001E20  0000              add [eax],al
00001E22  0000              add [eax],al
00001E24  0000              add [eax],al
00001E26  0000              add [eax],al
00001E28  0000              add [eax],al
00001E2A  0000              add [eax],al
00001E2C  0000              add [eax],al
00001E2E  0000              add [eax],al
00001E30  0000              add [eax],al
00001E32  0000              add [eax],al
00001E34  0000              add [eax],al
00001E36  0000              add [eax],al
00001E38  0000              add [eax],al
00001E3A  0000              add [eax],al
00001E3C  0000              add [eax],al
00001E3E  0000              add [eax],al
00001E40  0000              add [eax],al
00001E42  0000              add [eax],al
00001E44  0000              add [eax],al
00001E46  0000              add [eax],al
00001E48  0000              add [eax],al
00001E4A  0000              add [eax],al
00001E4C  0000              add [eax],al
00001E4E  0000              add [eax],al
00001E50  0000              add [eax],al
00001E52  0000              add [eax],al
00001E54  0000              add [eax],al
00001E56  0000              add [eax],al
00001E58  0000              add [eax],al
00001E5A  0000              add [eax],al
00001E5C  0000              add [eax],al
00001E5E  0000              add [eax],al
00001E60  0000              add [eax],al
00001E62  0000              add [eax],al
00001E64  0000              add [eax],al
00001E66  0000              add [eax],al
00001E68  0000              add [eax],al
00001E6A  0000              add [eax],al
00001E6C  0000              add [eax],al
00001E6E  0000              add [eax],al
00001E70  0000              add [eax],al
00001E72  0000              add [eax],al
00001E74  0000              add [eax],al
00001E76  0000              add [eax],al
00001E78  0000              add [eax],al
00001E7A  0000              add [eax],al
00001E7C  0000              add [eax],al
00001E7E  0000              add [eax],al
00001E80  0000              add [eax],al
00001E82  0000              add [eax],al
00001E84  0000              add [eax],al
00001E86  0000              add [eax],al
00001E88  0000              add [eax],al
00001E8A  0000              add [eax],al
00001E8C  0000              add [eax],al
00001E8E  0000              add [eax],al
00001E90  0000              add [eax],al
00001E92  0000              add [eax],al
00001E94  0000              add [eax],al
00001E96  0000              add [eax],al
00001E98  0000              add [eax],al
00001E9A  0000              add [eax],al
00001E9C  0000              add [eax],al
00001E9E  0000              add [eax],al
00001EA0  0000              add [eax],al
00001EA2  0000              add [eax],al
00001EA4  0000              add [eax],al
00001EA6  0000              add [eax],al
00001EA8  0000              add [eax],al
00001EAA  0000              add [eax],al
00001EAC  0000              add [eax],al
00001EAE  0000              add [eax],al
00001EB0  0000              add [eax],al
00001EB2  0000              add [eax],al
00001EB4  0000              add [eax],al
00001EB6  0000              add [eax],al
00001EB8  0000              add [eax],al
00001EBA  0000              add [eax],al
00001EBC  0000              add [eax],al
00001EBE  0000              add [eax],al
00001EC0  0000              add [eax],al
00001EC2  0000              add [eax],al
00001EC4  0000              add [eax],al
00001EC6  0000              add [eax],al
00001EC8  0000              add [eax],al
00001ECA  0000              add [eax],al
00001ECC  0000              add [eax],al
00001ECE  0000              add [eax],al
00001ED0  0000              add [eax],al
00001ED2  0000              add [eax],al
00001ED4  0000              add [eax],al
00001ED6  0000              add [eax],al
00001ED8  0000              add [eax],al
00001EDA  0000              add [eax],al
00001EDC  0000              add [eax],al
00001EDE  0000              add [eax],al
00001EE0  0000              add [eax],al
00001EE2  0000              add [eax],al
00001EE4  0000              add [eax],al
00001EE6  0000              add [eax],al
00001EE8  0000              add [eax],al
00001EEA  0000              add [eax],al
00001EEC  0000              add [eax],al
00001EEE  0000              add [eax],al
00001EF0  0000              add [eax],al
00001EF2  0000              add [eax],al
00001EF4  0000              add [eax],al
00001EF6  0000              add [eax],al
00001EF8  0000              add [eax],al
00001EFA  0000              add [eax],al
00001EFC  0000              add [eax],al
00001EFE  0000              add [eax],al
00001F00  0000              add [eax],al
00001F02  0000              add [eax],al
00001F04  0000              add [eax],al
00001F06  0000              add [eax],al
00001F08  0000              add [eax],al
00001F0A  0000              add [eax],al
00001F0C  0000              add [eax],al
00001F0E  0000              add [eax],al
00001F10  0000              add [eax],al
00001F12  0000              add [eax],al
00001F14  0000              add [eax],al
00001F16  0000              add [eax],al
00001F18  0000              add [eax],al
00001F1A  0000              add [eax],al
00001F1C  0000              add [eax],al
00001F1E  0000              add [eax],al
00001F20  0000              add [eax],al
00001F22  0000              add [eax],al
00001F24  0000              add [eax],al
00001F26  0000              add [eax],al
00001F28  0000              add [eax],al
00001F2A  0000              add [eax],al
00001F2C  0000              add [eax],al
00001F2E  0000              add [eax],al
00001F30  0000              add [eax],al
00001F32  0000              add [eax],al
00001F34  0000              add [eax],al
00001F36  0000              add [eax],al
00001F38  0000              add [eax],al
00001F3A  0000              add [eax],al
00001F3C  0000              add [eax],al
00001F3E  0000              add [eax],al
00001F40  0000              add [eax],al
00001F42  0000              add [eax],al
00001F44  0000              add [eax],al
00001F46  0000              add [eax],al
00001F48  0000              add [eax],al
00001F4A  0000              add [eax],al
00001F4C  0000              add [eax],al
00001F4E  0000              add [eax],al
00001F50  0000              add [eax],al
00001F52  0000              add [eax],al
00001F54  0000              add [eax],al
00001F56  0000              add [eax],al
00001F58  0000              add [eax],al
00001F5A  0000              add [eax],al
00001F5C  0000              add [eax],al
00001F5E  0000              add [eax],al
00001F60  0000              add [eax],al
00001F62  0000              add [eax],al
00001F64  0000              add [eax],al
00001F66  0000              add [eax],al
00001F68  0000              add [eax],al
00001F6A  0000              add [eax],al
00001F6C  0000              add [eax],al
00001F6E  0000              add [eax],al
00001F70  0000              add [eax],al
00001F72  0000              add [eax],al
00001F74  0000              add [eax],al
00001F76  0000              add [eax],al
00001F78  0000              add [eax],al
00001F7A  0000              add [eax],al
00001F7C  0000              add [eax],al
00001F7E  0000              add [eax],al
00001F80  0000              add [eax],al
00001F82  0000              add [eax],al
00001F84  0000              add [eax],al
00001F86  0000              add [eax],al
00001F88  0000              add [eax],al
00001F8A  0000              add [eax],al
00001F8C  0000              add [eax],al
00001F8E  0000              add [eax],al
00001F90  0000              add [eax],al
00001F92  0000              add [eax],al
00001F94  0000              add [eax],al
00001F96  0000              add [eax],al
00001F98  0000              add [eax],al
00001F9A  0000              add [eax],al
00001F9C  0000              add [eax],al
00001F9E  0000              add [eax],al
00001FA0  0000              add [eax],al
00001FA2  0000              add [eax],al
00001FA4  0000              add [eax],al
00001FA6  0000              add [eax],al
00001FA8  0000              add [eax],al
00001FAA  0000              add [eax],al
00001FAC  0000              add [eax],al
00001FAE  0000              add [eax],al
00001FB0  0000              add [eax],al
00001FB2  0000              add [eax],al
00001FB4  0000              add [eax],al
00001FB6  0000              add [eax],al
00001FB8  0000              add [eax],al
00001FBA  0000              add [eax],al
00001FBC  0000              add [eax],al
00001FBE  0000              add [eax],al
00001FC0  0000              add [eax],al
00001FC2  0000              add [eax],al
00001FC4  0000              add [eax],al
00001FC6  0000              add [eax],al
00001FC8  0000              add [eax],al
00001FCA  0000              add [eax],al
00001FCC  0000              add [eax],al
00001FCE  0000              add [eax],al
00001FD0  0000              add [eax],al
00001FD2  0000              add [eax],al
00001FD4  0000              add [eax],al
00001FD6  0000              add [eax],al
00001FD8  0000              add [eax],al
00001FDA  0000              add [eax],al
00001FDC  0000              add [eax],al
00001FDE  0000              add [eax],al
00001FE0  0000              add [eax],al
00001FE2  0000              add [eax],al
00001FE4  0000              add [eax],al
00001FE6  0000              add [eax],al
00001FE8  0000              add [eax],al
00001FEA  0000              add [eax],al
00001FEC  0000              add [eax],al
00001FEE  0000              add [eax],al
00001FF0  0000              add [eax],al
00001FF2  0000              add [eax],al
00001FF4  0000              add [eax],al
00001FF6  0000              add [eax],al
00001FF8  0000              add [eax],al
00001FFA  0000              add [eax],al
00001FFC  0000              add [eax],al
00001FFE  0000              add [eax],al
00002000  0000              add [eax],al
00002002  0000              add [eax],al
00002004  0000              add [eax],al
00002006  0000              add [eax],al
00002008  0000              add [eax],al
0000200A  0000              add [eax],al
0000200C  0000              add [eax],al
0000200E  0000              add [eax],al
00002010  0000              add [eax],al
00002012  0000              add [eax],al
00002014  0000              add [eax],al
00002016  0000              add [eax],al
00002018  0000              add [eax],al
0000201A  0000              add [eax],al
0000201C  0000              add [eax],al
0000201E  0000              add [eax],al
00002020  0000              add [eax],al
00002022  0000              add [eax],al
00002024  0000              add [eax],al
00002026  0000              add [eax],al
00002028  0000              add [eax],al
0000202A  0000              add [eax],al
0000202C  0000              add [eax],al
0000202E  0000              add [eax],al
00002030  0000              add [eax],al
00002032  0000              add [eax],al
00002034  0000              add [eax],al
00002036  0000              add [eax],al
00002038  0000              add [eax],al
0000203A  0000              add [eax],al
0000203C  0000              add [eax],al
0000203E  0000              add [eax],al
00002040  0000              add [eax],al
00002042  0000              add [eax],al
00002044  0000              add [eax],al
00002046  0000              add [eax],al
00002048  0000              add [eax],al
0000204A  0000              add [eax],al
0000204C  0000              add [eax],al
0000204E  0000              add [eax],al
00002050  0000              add [eax],al
00002052  0000              add [eax],al
00002054  0000              add [eax],al
00002056  0000              add [eax],al
00002058  0000              add [eax],al
0000205A  0000              add [eax],al
0000205C  0000              add [eax],al
0000205E  0000              add [eax],al
00002060  0000              add [eax],al
00002062  0000              add [eax],al
00002064  0000              add [eax],al
00002066  0000              add [eax],al
00002068  0000              add [eax],al
0000206A  0000              add [eax],al
0000206C  0000              add [eax],al
0000206E  0000              add [eax],al
00002070  0000              add [eax],al
00002072  0000              add [eax],al
00002074  0000              add [eax],al
00002076  0000              add [eax],al
00002078  0000              add [eax],al
0000207A  0000              add [eax],al
0000207C  0000              add [eax],al
0000207E  0000              add [eax],al
00002080  0000              add [eax],al
00002082  0000              add [eax],al
00002084  0000              add [eax],al
00002086  0000              add [eax],al
00002088  0000              add [eax],al
0000208A  0000              add [eax],al
0000208C  0000              add [eax],al
0000208E  0000              add [eax],al
00002090  0000              add [eax],al
00002092  0000              add [eax],al
00002094  0000              add [eax],al
00002096  0000              add [eax],al
00002098  0000              add [eax],al
0000209A  0000              add [eax],al
0000209C  0000              add [eax],al
0000209E  0000              add [eax],al
000020A0  0000              add [eax],al
000020A2  0000              add [eax],al
000020A4  0000              add [eax],al
000020A6  0000              add [eax],al
000020A8  0000              add [eax],al
000020AA  0000              add [eax],al
000020AC  0000              add [eax],al
000020AE  0000              add [eax],al
000020B0  0000              add [eax],al
000020B2  0000              add [eax],al
000020B4  0000              add [eax],al
000020B6  0000              add [eax],al
000020B8  0000              add [eax],al
000020BA  0000              add [eax],al
000020BC  0000              add [eax],al
000020BE  0000              add [eax],al
000020C0  0000              add [eax],al
000020C2  0000              add [eax],al
000020C4  0000              add [eax],al
000020C6  0000              add [eax],al
000020C8  0000              add [eax],al
000020CA  0000              add [eax],al
000020CC  0000              add [eax],al
000020CE  0000              add [eax],al
000020D0  0000              add [eax],al
000020D2  0000              add [eax],al
000020D4  0000              add [eax],al
000020D6  0000              add [eax],al
000020D8  0000              add [eax],al
000020DA  0000              add [eax],al
000020DC  0000              add [eax],al
000020DE  0000              add [eax],al
000020E0  0000              add [eax],al
000020E2  0000              add [eax],al
000020E4  0000              add [eax],al
000020E6  0000              add [eax],al
000020E8  0000              add [eax],al
000020EA  0000              add [eax],al
000020EC  0000              add [eax],al
000020EE  0000              add [eax],al
000020F0  0000              add [eax],al
000020F2  0000              add [eax],al
000020F4  0000              add [eax],al
000020F6  0000              add [eax],al
000020F8  0000              add [eax],al
000020FA  0000              add [eax],al
000020FC  0000              add [eax],al
000020FE  0000              add [eax],al
00002100  0000              add [eax],al
00002102  0000              add [eax],al
00002104  0000              add [eax],al
00002106  0000              add [eax],al
00002108  0000              add [eax],al
0000210A  0000              add [eax],al
0000210C  0000              add [eax],al
0000210E  0000              add [eax],al
00002110  0000              add [eax],al
00002112  0000              add [eax],al
00002114  0000              add [eax],al
00002116  0000              add [eax],al
00002118  0000              add [eax],al
0000211A  0000              add [eax],al
0000211C  0000              add [eax],al
0000211E  0000              add [eax],al
00002120  0000              add [eax],al
00002122  0000              add [eax],al
00002124  0000              add [eax],al
00002126  0000              add [eax],al
00002128  0000              add [eax],al
0000212A  0000              add [eax],al
0000212C  0000              add [eax],al
0000212E  0000              add [eax],al
00002130  0000              add [eax],al
00002132  0000              add [eax],al
00002134  0000              add [eax],al
00002136  0000              add [eax],al
00002138  0000              add [eax],al
0000213A  0000              add [eax],al
0000213C  0000              add [eax],al
0000213E  0000              add [eax],al
00002140  0000              add [eax],al
00002142  0000              add [eax],al
00002144  0000              add [eax],al
00002146  0000              add [eax],al
00002148  0000              add [eax],al
0000214A  0000              add [eax],al
0000214C  0000              add [eax],al
0000214E  0000              add [eax],al
00002150  0000              add [eax],al
00002152  0000              add [eax],al
00002154  0000              add [eax],al
00002156  0000              add [eax],al
00002158  0000              add [eax],al
0000215A  0000              add [eax],al
0000215C  0000              add [eax],al
0000215E  0000              add [eax],al
00002160  0000              add [eax],al
00002162  0000              add [eax],al
00002164  0000              add [eax],al
00002166  0000              add [eax],al
00002168  0000              add [eax],al
0000216A  0000              add [eax],al
0000216C  0000              add [eax],al
0000216E  0000              add [eax],al
00002170  0000              add [eax],al
00002172  0000              add [eax],al
00002174  0000              add [eax],al
00002176  0000              add [eax],al
00002178  0000              add [eax],al
0000217A  0000              add [eax],al
0000217C  0000              add [eax],al
0000217E  0000              add [eax],al
00002180  0000              add [eax],al
00002182  0000              add [eax],al
00002184  0000              add [eax],al
00002186  0000              add [eax],al
00002188  0000              add [eax],al
0000218A  0000              add [eax],al
0000218C  0000              add [eax],al
0000218E  0000              add [eax],al
00002190  0000              add [eax],al
00002192  0000              add [eax],al
00002194  0000              add [eax],al
00002196  0000              add [eax],al
00002198  0000              add [eax],al
0000219A  0000              add [eax],al
0000219C  0000              add [eax],al
0000219E  0000              add [eax],al
000021A0  0000              add [eax],al
000021A2  0000              add [eax],al
000021A4  0000              add [eax],al
000021A6  0000              add [eax],al
000021A8  0000              add [eax],al
000021AA  0000              add [eax],al
000021AC  0000              add [eax],al
000021AE  0000              add [eax],al
000021B0  0000              add [eax],al
000021B2  0000              add [eax],al
000021B4  0000              add [eax],al
000021B6  0000              add [eax],al
000021B8  0000              add [eax],al
000021BA  0000              add [eax],al
000021BC  0000              add [eax],al
000021BE  0000              add [eax],al
000021C0  0000              add [eax],al
000021C2  0000              add [eax],al
000021C4  0000              add [eax],al
000021C6  0000              add [eax],al
000021C8  0000              add [eax],al
000021CA  0000              add [eax],al
000021CC  0000              add [eax],al
000021CE  0000              add [eax],al
000021D0  0000              add [eax],al
000021D2  0000              add [eax],al
000021D4  0000              add [eax],al
000021D6  0000              add [eax],al
000021D8  0000              add [eax],al
000021DA  0000              add [eax],al
000021DC  0000              add [eax],al
000021DE  0000              add [eax],al
000021E0  0000              add [eax],al
000021E2  0000              add [eax],al
000021E4  0000              add [eax],al
000021E6  0000              add [eax],al
000021E8  0000              add [eax],al
000021EA  0000              add [eax],al
000021EC  0000              add [eax],al
000021EE  0000              add [eax],al
000021F0  0000              add [eax],al
000021F2  0000              add [eax],al
000021F4  0000              add [eax],al
000021F6  0000              add [eax],al
000021F8  0000              add [eax],al
000021FA  0000              add [eax],al
000021FC  0000              add [eax],al
000021FE  0000              add [eax],al
00002200  1400              adc al,0x0
00002202  0000              add [eax],al
00002204  0000              add [eax],al
00002206  0000              add [eax],al
00002208  017A52            add [edx+0x52],edi
0000220B  0001              add [ecx],al
0000220D  7C08              jl 0x2217
0000220F  011B              add [ebx],ebx
00002211  0C04              or al,0x4
00002213  0488              add al,0x88
00002215  0100              add [eax],eax
00002217  001C00            add [eax+eax],bl
0000221A  0000              add [eax],al
0000221C  1C00              sbb al,0x0
0000221E  0000              add [eax],al
00002220  F7EF              imul edi
00002222  FF                db 0xff
00002223  FF                db 0xff
00002224  3E0000            add [ds:eax],al
00002227  0000              add [eax],al
00002229  41                inc ecx
0000222A  0E                push cs
0000222B  088502420D05      or [ebp+0x50d4202],al
00002231  7AC5              jpe 0x21f8
00002233  0C04              or al,0x4
00002235  0400              add al,0x0
00002237  001C00            add [eax+eax],bl
0000223A  0000              add [eax],al
0000223C  3C00              cmp al,0x0
0000223E  0000              add [eax],al
00002240  15F0FFFF27        adc eax,0x27fffff0
00002245  0000              add [eax],al
00002247  0000              add [eax],al
00002249  41                inc ecx
0000224A  0E                push cs
0000224B  088502420D05      or [ebp+0x50d4202],al
00002251  63C5              arpl bp,ax
00002253  0C04              or al,0x4
00002255  0400              add al,0x0
00002257  001C00            add [eax+eax],bl
0000225A  0000              add [eax],al
0000225C  5C                pop esp
0000225D  0000              add [eax],al
0000225F  001CF0            add [eax+esi*8],bl
00002262  FF                db 0xff
00002263  FF29              jmp far [ecx]
00002265  0000              add [eax],al
00002267  0000              add [eax],al
00002269  41                inc ecx
0000226A  0E                push cs
0000226B  088502420D05      or [ebp+0x50d4202],al
00002271  65C50C04          lds ecx,[gs:esp+eax]
00002275  0400              add al,0x0
00002277  001C00            add [eax+eax],bl
0000227A  0000              add [eax],al
0000227C  7C00              jl 0x227e
0000227E  0000              add [eax],al
00002280  25F0FFFF29        and eax,0x29fffff0
00002285  0000              add [eax],al
00002287  0000              add [eax],al
00002289  41                inc ecx
0000228A  0E                push cs
0000228B  088502420D05      or [ebp+0x50d4202],al
00002291  65C50C04          lds ecx,[gs:esp+eax]
00002295  0400              add al,0x0
00002297  001C00            add [eax+eax],bl
0000229A  0000              add [eax],al
0000229C  9C                pushf
0000229D  0000              add [eax],al
0000229F  002E              add [esi],ch
000022A1  F0                lock
000022A2  FF                db 0xff
000022A3  FF2B              jmp far [ebx]
000022A5  0000              add [eax],al
000022A7  0000              add [eax],al
000022A9  41                inc ecx
000022AA  0E                push cs
000022AB  088502420D05      or [ebp+0x50d4202],al
000022B1  67C50C            lds ecx,[si]
000022B4  0404              add al,0x4
000022B6  0000              add [eax],al
000022B8  1C00              sbb al,0x0
000022BA  0000              add [eax],al
000022BC  BC00000039        mov esp,0x39000000
000022C1  F0                lock
000022C2  FF                db 0xff
000022C3  FF2500000000      jmp [dword 0x0]
000022C9  41                inc ecx
000022CA  0E                push cs
000022CB  088502420D05      or [ebp+0x50d4202],al
000022D1  61                popa
000022D2  C50C04            lds ecx,[esp+eax]
000022D5  0400              add al,0x0
000022D7  001C00            add [eax+eax],bl
000022DA  0000              add [eax],al
000022DC  DC00              fadd qword [eax]
000022DE  0000              add [eax],al
000022E0  3E                ds
000022E1  F0                lock
000022E2  FF                db 0xff
000022E3  FF5E00            call far [esi+0x0]
000022E6  0000              add [eax],al
000022E8  00410E            add [ecx+0xe],al
000022EB  088502420D05      or [ebp+0x50d4202],al
000022F1  025AC5            add bl,[edx-0x3b]
000022F4  0C04              or al,0x4
000022F6  0400              add al,0x0
000022F8  1C00              sbb al,0x0
000022FA  0000              add [eax],al
000022FC  FC                cld
000022FD  0000              add [eax],al
000022FF  007CF0FF          add [eax+esi*8-0x1],bh
00002303  FF6800            jmp far [eax+0x0]
00002306  0000              add [eax],al
00002308  00410E            add [ecx+0xe],al
0000230B  088502420D05      or [ebp+0x50d4202],al
00002311  0264C50C          add ah,[ebp+eax*8+0xc]
00002315  0404              add al,0x4
00002317  0020              add [eax],ah
00002319  0000              add [eax],al
0000231B  001C01            add [ecx+eax],bl
0000231E  0000              add [eax],al
00002320  C4                db 0xc4
00002321  F0                lock
00002322  FF                db 0xff
00002323  FFB200000000      push dword [edx+0x0]
00002329  41                inc ecx
0000232A  0E                push cs
0000232B  088502420D05      or [ebp+0x50d4202],al
00002331  44                inc esp
00002332  830302            add dword [ebx],byte +0x2
00002335  AA                stosb
00002336  C5                db 0xc5
00002337  C3                ret
00002338  0C04              or al,0x4
0000233A  0400              add al,0x0
0000233C  1C00              sbb al,0x0
0000233E  0000              add [eax],al
00002340  40                inc eax
00002341  0100              add [eax],eax
00002343  0052F1            add [edx-0xf],dl
00002346  FF                db 0xff
00002347  FFC6              inc esi
00002349  0000              add [eax],al
0000234B  0000              add [eax],al
0000234D  41                inc ecx
0000234E  0E                push cs
0000234F  088502420D05      or [ebp+0x50d4202],al
00002355  02C2              add al,dl
00002357  C50C04            lds ecx,[esp+eax]
0000235A  0400              add al,0x0
0000235C  1C00              sbb al,0x0
0000235E  0000              add [eax],al
00002360  60                pusha
00002361  0100              add [eax],eax
00002363  00F8              add al,bh
00002365  F1                int1
00002366  FF                db 0xff
00002367  FF6E00            jmp far [esi+0x0]
0000236A  0000              add [eax],al
0000236C  00410E            add [ecx+0xe],al
0000236F  088502420D05      or [ebp+0x50d4202],al
00002375  026AC5            add ch,[edx-0x3b]
00002378  0C04              or al,0x4
0000237A  0400              add al,0x0
0000237C  1C00              sbb al,0x0
0000237E  0000              add [eax],al
00002380  800100            add byte [ecx],0x0
00002383  0046F2            add [esi-0xe],al
00002386  FF                db 0xff
00002387  FF7000            push dword [eax+0x0]
0000238A  0000              add [eax],al
0000238C  00410E            add [ecx+0xe],al
0000238F  088502420D05      or [ebp+0x50d4202],al
00002395  026CC50C          add ch,[ebp+eax*8+0xc]
00002399  0404              add al,0x4
0000239B  001C00            add [eax+eax],bl
0000239E  0000              add [eax],al
000023A0  A001000096        mov al,[0x96000001]
000023A5  F2                repne
000023A6  FF                db 0xff
000023A7  FF1F              call far [edi]
000023A9  0000              add [eax],al
000023AB  0000              add [eax],al
000023AD  41                inc ecx
000023AE  0E                push cs
000023AF  088502420D05      or [ebp+0x50d4202],al
000023B5  5B                pop ebx
000023B6  C50C04            lds ecx,[esp+eax]
000023B9  0400              add al,0x0
000023BB  0018              add [eax],bl
000023BD  0000              add [eax],al
000023BF  00C0              add al,al
000023C1  0100              add [eax],eax
000023C3  0095F2FFFF1F      add [ebp+0x1ffffff2],dl
000023C9  0000              add [eax],al
000023CB  0000              add [eax],al
000023CD  41                inc ecx
000023CE  0E                push cs
000023CF  088502420D05      or [ebp+0x50d4202],al
000023D5  0000              add [eax],al
000023D7  0028              add [eax],ch
000023D9  0000              add [eax],al
000023DB  00DC              add ah,bl
000023DD  0100              add [eax],eax
000023DF  0098F2FFFF92      add [eax-0x6d00000e],bl
000023E5  0000              add [eax],al
000023E7  0000              add [eax],al
000023E9  44                inc esp
000023EA  0C01              or al,0x1
000023EC  004910            add [ecx+0x10],cl
000023EF  0502750041        add eax,0x41007502
000023F4  0F03757C          lsl esi,[ebp+0x7c]
000023F8  06                push es
000023F9  027F0C            add bh,[edi+0xc]
000023FC  0100              add [eax],eax
000023FE  41                inc ecx
000023FF  C5430C            lds eax,[ebx+0xc]
00002402  0404              add al,0x4
00002404  1000              adc [eax],al
00002406  0000              add [eax],al
00002408  0802              or [edx],al
0000240A  0000              add [eax],al
0000240C  FE                db 0xfe
0000240D  F2                repne
0000240E  FF                db 0xff
0000240F  FF0400            inc dword [eax+eax]
00002412  0000              add [eax],al
00002414  0000              add [eax],al
00002416  0000              add [eax],al
00002418  0000              add [eax],al
0000241A  0000              add [eax],al
0000241C  0000              add [eax],al
0000241E  0000              add [eax],al
00002420  0000              add [eax],al
00002422  0000              add [eax],al
00002424  0000              add [eax],al
00002426  0000              add [eax],al
00002428  0000              add [eax],al
0000242A  0000              add [eax],al
0000242C  0000              add [eax],al
0000242E  0000              add [eax],al
00002430  0000              add [eax],al
00002432  0000              add [eax],al
00002434  0000              add [eax],al
00002436  0000              add [eax],al
00002438  0000              add [eax],al
0000243A  0000              add [eax],al
0000243C  0000              add [eax],al
0000243E  0000              add [eax],al
00002440  0000              add [eax],al
00002442  0000              add [eax],al
00002444  0000              add [eax],al
00002446  0000              add [eax],al
00002448  0000              add [eax],al
0000244A  0000              add [eax],al
0000244C  0000              add [eax],al
0000244E  0000              add [eax],al
00002450  0000              add [eax],al
00002452  0000              add [eax],al
00002454  0000              add [eax],al
00002456  0000              add [eax],al
00002458  0000              add [eax],al
0000245A  0000              add [eax],al
0000245C  0000              add [eax],al
0000245E  0000              add [eax],al
00002460  0000              add [eax],al
00002462  0000              add [eax],al
00002464  0000              add [eax],al
00002466  0000              add [eax],al
00002468  0000              add [eax],al
0000246A  0000              add [eax],al
0000246C  0000              add [eax],al
0000246E  0000              add [eax],al
00002470  0000              add [eax],al
00002472  0000              add [eax],al
00002474  0000              add [eax],al
00002476  0000              add [eax],al
00002478  0000              add [eax],al
0000247A  0000              add [eax],al
0000247C  0000              add [eax],al
0000247E  0000              add [eax],al
00002480  0000              add [eax],al
00002482  0000              add [eax],al
00002484  0000              add [eax],al
00002486  0000              add [eax],al
00002488  0000              add [eax],al
0000248A  0000              add [eax],al
0000248C  0000              add [eax],al
0000248E  0000              add [eax],al
00002490  0000              add [eax],al
00002492  0000              add [eax],al
00002494  0000              add [eax],al
00002496  0000              add [eax],al
00002498  0000              add [eax],al
0000249A  0000              add [eax],al
0000249C  0000              add [eax],al
0000249E  0000              add [eax],al
000024A0  0000              add [eax],al
000024A2  0000              add [eax],al
000024A4  0000              add [eax],al
000024A6  0000              add [eax],al
000024A8  0000              add [eax],al
000024AA  0000              add [eax],al
000024AC  0000              add [eax],al
000024AE  0000              add [eax],al
000024B0  0000              add [eax],al
000024B2  0000              add [eax],al
000024B4  0000              add [eax],al
000024B6  0000              add [eax],al
000024B8  0000              add [eax],al
000024BA  0000              add [eax],al
000024BC  0000              add [eax],al
000024BE  0000              add [eax],al
000024C0  0000              add [eax],al
000024C2  0000              add [eax],al
000024C4  0000              add [eax],al
000024C6  0000              add [eax],al
000024C8  0000              add [eax],al
000024CA  0000              add [eax],al
000024CC  0000              add [eax],al
000024CE  0000              add [eax],al
000024D0  0000              add [eax],al
000024D2  0000              add [eax],al
000024D4  0000              add [eax],al
000024D6  0000              add [eax],al
000024D8  0000              add [eax],al
000024DA  0000              add [eax],al
000024DC  0000              add [eax],al
000024DE  0000              add [eax],al
000024E0  0000              add [eax],al
000024E2  0000              add [eax],al
000024E4  0000              add [eax],al
000024E6  0000              add [eax],al
000024E8  0000              add [eax],al
000024EA  0000              add [eax],al
000024EC  0000              add [eax],al
000024EE  0000              add [eax],al
000024F0  0000              add [eax],al
000024F2  0000              add [eax],al
000024F4  0000              add [eax],al
000024F6  0000              add [eax],al
000024F8  0000              add [eax],al
000024FA  0000              add [eax],al
000024FC  0000              add [eax],al
000024FE  0000              add [eax],al
00002500  0000              add [eax],al
00002502  0000              add [eax],al
00002504  0000              add [eax],al
00002506  0000              add [eax],al
00002508  0000              add [eax],al
0000250A  0000              add [eax],al
0000250C  0000              add [eax],al
0000250E  0000              add [eax],al
00002510  0000              add [eax],al
00002512  0000              add [eax],al
00002514  0000              add [eax],al
00002516  0000              add [eax],al
00002518  0000              add [eax],al
0000251A  0000              add [eax],al
0000251C  0000              add [eax],al
0000251E  0000              add [eax],al
00002520  0000              add [eax],al
00002522  0000              add [eax],al
00002524  0000              add [eax],al
00002526  0000              add [eax],al
00002528  0000              add [eax],al
0000252A  0000              add [eax],al
0000252C  0000              add [eax],al
0000252E  0000              add [eax],al
00002530  0000              add [eax],al
00002532  0000              add [eax],al
00002534  0000              add [eax],al
00002536  0000              add [eax],al
00002538  0000              add [eax],al
0000253A  0000              add [eax],al
0000253C  0000              add [eax],al
0000253E  0000              add [eax],al
00002540  0000              add [eax],al
00002542  0000              add [eax],al
00002544  0000              add [eax],al
00002546  0000              add [eax],al
00002548  0000              add [eax],al
0000254A  0000              add [eax],al
0000254C  0000              add [eax],al
0000254E  0000              add [eax],al
00002550  0000              add [eax],al
00002552  0000              add [eax],al
00002554  0000              add [eax],al
00002556  0000              add [eax],al
00002558  0000              add [eax],al
0000255A  0000              add [eax],al
0000255C  0000              add [eax],al
0000255E  0000              add [eax],al
00002560  0000              add [eax],al
00002562  0000              add [eax],al
00002564  0000              add [eax],al
00002566  0000              add [eax],al
00002568  0000              add [eax],al
0000256A  0000              add [eax],al
0000256C  0000              add [eax],al
0000256E  0000              add [eax],al
00002570  0000              add [eax],al
00002572  0000              add [eax],al
00002574  0000              add [eax],al
00002576  0000              add [eax],al
00002578  0000              add [eax],al
0000257A  0000              add [eax],al
0000257C  0000              add [eax],al
0000257E  0000              add [eax],al
00002580  0000              add [eax],al
00002582  0000              add [eax],al
00002584  0000              add [eax],al
00002586  0000              add [eax],al
00002588  0000              add [eax],al
0000258A  0000              add [eax],al
0000258C  0000              add [eax],al
0000258E  0000              add [eax],al
00002590  0000              add [eax],al
00002592  0000              add [eax],al
00002594  0000              add [eax],al
00002596  0000              add [eax],al
00002598  0000              add [eax],al
0000259A  0000              add [eax],al
0000259C  0000              add [eax],al
0000259E  0000              add [eax],al
000025A0  0000              add [eax],al
000025A2  0000              add [eax],al
000025A4  0000              add [eax],al
000025A6  0000              add [eax],al
000025A8  0000              add [eax],al
000025AA  0000              add [eax],al
000025AC  0000              add [eax],al
000025AE  0000              add [eax],al
000025B0  0000              add [eax],al
000025B2  0000              add [eax],al
000025B4  0000              add [eax],al
000025B6  0000              add [eax],al
000025B8  0000              add [eax],al
000025BA  0000              add [eax],al
000025BC  0000              add [eax],al
000025BE  0000              add [eax],al
000025C0  0000              add [eax],al
000025C2  0000              add [eax],al
000025C4  0000              add [eax],al
000025C6  0000              add [eax],al
000025C8  0000              add [eax],al
000025CA  0000              add [eax],al
000025CC  0000              add [eax],al
000025CE  0000              add [eax],al
000025D0  0000              add [eax],al
000025D2  0000              add [eax],al
000025D4  0000              add [eax],al
000025D6  0000              add [eax],al
000025D8  0000              add [eax],al
000025DA  0000              add [eax],al
000025DC  0000              add [eax],al
000025DE  0000              add [eax],al
000025E0  0000              add [eax],al
000025E2  0000              add [eax],al
000025E4  0000              add [eax],al
000025E6  0000              add [eax],al
000025E8  0000              add [eax],al
000025EA  0000              add [eax],al
000025EC  0000              add [eax],al
000025EE  0000              add [eax],al
000025F0  0000              add [eax],al
000025F2  0000              add [eax],al
000025F4  0000              add [eax],al
000025F6  0000              add [eax],al
000025F8  0000              add [eax],al
000025FA  0000              add [eax],al
000025FC  0000              add [eax],al
000025FE  0000              add [eax],al
00002600  0000              add [eax],al
00002602  0000              add [eax],al
00002604  0000              add [eax],al
00002606  0000              add [eax],al
00002608  0000              add [eax],al
0000260A  0000              add [eax],al
0000260C  0000              add [eax],al
0000260E  0000              add [eax],al
00002610  0000              add [eax],al
00002612  0000              add [eax],al
00002614  0000              add [eax],al
00002616  0000              add [eax],al
00002618  0000              add [eax],al
0000261A  0000              add [eax],al
0000261C  0000              add [eax],al
0000261E  0000              add [eax],al
00002620  0000              add [eax],al
00002622  0000              add [eax],al
00002624  0000              add [eax],al
00002626  0000              add [eax],al
00002628  0000              add [eax],al
0000262A  0000              add [eax],al
0000262C  0000              add [eax],al
0000262E  0000              add [eax],al
00002630  0000              add [eax],al
00002632  0000              add [eax],al
00002634  0000              add [eax],al
00002636  0000              add [eax],al
00002638  0000              add [eax],al
0000263A  0000              add [eax],al
0000263C  0000              add [eax],al
0000263E  0000              add [eax],al
00002640  0000              add [eax],al
00002642  0000              add [eax],al
00002644  0000              add [eax],al
00002646  0000              add [eax],al
00002648  0000              add [eax],al
0000264A  0000              add [eax],al
0000264C  0000              add [eax],al
0000264E  0000              add [eax],al
00002650  0000              add [eax],al
00002652  0000              add [eax],al
00002654  0000              add [eax],al
00002656  0000              add [eax],al
00002658  0000              add [eax],al
0000265A  0000              add [eax],al
0000265C  0000              add [eax],al
0000265E  0000              add [eax],al
00002660  0000              add [eax],al
00002662  0000              add [eax],al
00002664  0000              add [eax],al
00002666  0000              add [eax],al
00002668  0000              add [eax],al
0000266A  0000              add [eax],al
0000266C  0000              add [eax],al
0000266E  0000              add [eax],al
00002670  0000              add [eax],al
00002672  0000              add [eax],al
00002674  0000              add [eax],al
00002676  0000              add [eax],al
00002678  0000              add [eax],al
0000267A  0000              add [eax],al
0000267C  0000              add [eax],al
0000267E  0000              add [eax],al
00002680  0000              add [eax],al
00002682  0000              add [eax],al
00002684  0000              add [eax],al
00002686  0000              add [eax],al
00002688  0000              add [eax],al
0000268A  0000              add [eax],al
0000268C  0000              add [eax],al
0000268E  0000              add [eax],al
00002690  0000              add [eax],al
00002692  0000              add [eax],al
00002694  0000              add [eax],al
00002696  0000              add [eax],al
00002698  0000              add [eax],al
0000269A  0000              add [eax],al
0000269C  0000              add [eax],al
0000269E  0000              add [eax],al
000026A0  0000              add [eax],al
000026A2  0000              add [eax],al
000026A4  0000              add [eax],al
000026A6  0000              add [eax],al
000026A8  0000              add [eax],al
000026AA  0000              add [eax],al
000026AC  0000              add [eax],al
000026AE  0000              add [eax],al
000026B0  0000              add [eax],al
000026B2  0000              add [eax],al
000026B4  0000              add [eax],al
000026B6  0000              add [eax],al
000026B8  0000              add [eax],al
000026BA  0000              add [eax],al
000026BC  0000              add [eax],al
000026BE  0000              add [eax],al
000026C0  0000              add [eax],al
000026C2  0000              add [eax],al
000026C4  0000              add [eax],al
000026C6  0000              add [eax],al
000026C8  0000              add [eax],al
000026CA  0000              add [eax],al
000026CC  0000              add [eax],al
000026CE  0000              add [eax],al
000026D0  0000              add [eax],al
000026D2  0000              add [eax],al
000026D4  0000              add [eax],al
000026D6  0000              add [eax],al
000026D8  0000              add [eax],al
000026DA  0000              add [eax],al
000026DC  0000              add [eax],al
000026DE  0000              add [eax],al
000026E0  0000              add [eax],al
000026E2  0000              add [eax],al
000026E4  0000              add [eax],al
000026E6  0000              add [eax],al
000026E8  0000              add [eax],al
000026EA  0000              add [eax],al
000026EC  0000              add [eax],al
000026EE  0000              add [eax],al
000026F0  0000              add [eax],al
000026F2  0000              add [eax],al
000026F4  0000              add [eax],al
000026F6  0000              add [eax],al
000026F8  0000              add [eax],al
000026FA  0000              add [eax],al
000026FC  0000              add [eax],al
000026FE  0000              add [eax],al
00002700  0000              add [eax],al
00002702  0000              add [eax],al
00002704  0000              add [eax],al
00002706  0000              add [eax],al
00002708  0000              add [eax],al
0000270A  0000              add [eax],al
0000270C  0000              add [eax],al
0000270E  0000              add [eax],al
00002710  0000              add [eax],al
00002712  0000              add [eax],al
00002714  0000              add [eax],al
00002716  0000              add [eax],al
00002718  0000              add [eax],al
0000271A  0000              add [eax],al
0000271C  0000              add [eax],al
0000271E  0000              add [eax],al
00002720  0000              add [eax],al
00002722  0000              add [eax],al
00002724  0000              add [eax],al
00002726  0000              add [eax],al
00002728  0000              add [eax],al
0000272A  0000              add [eax],al
0000272C  0000              add [eax],al
0000272E  0000              add [eax],al
00002730  0000              add [eax],al
00002732  0000              add [eax],al
00002734  0000              add [eax],al
00002736  0000              add [eax],al
00002738  0000              add [eax],al
0000273A  0000              add [eax],al
0000273C  0000              add [eax],al
0000273E  0000              add [eax],al
00002740  0000              add [eax],al
00002742  0000              add [eax],al
00002744  0000              add [eax],al
00002746  0000              add [eax],al
00002748  0000              add [eax],al
0000274A  0000              add [eax],al
0000274C  0000              add [eax],al
0000274E  0000              add [eax],al
00002750  0000              add [eax],al
00002752  0000              add [eax],al
00002754  0000              add [eax],al
00002756  0000              add [eax],al
00002758  0000              add [eax],al
0000275A  0000              add [eax],al
0000275C  0000              add [eax],al
0000275E  0000              add [eax],al
00002760  0000              add [eax],al
00002762  0000              add [eax],al
00002764  0000              add [eax],al
00002766  0000              add [eax],al
00002768  0000              add [eax],al
0000276A  0000              add [eax],al
0000276C  0000              add [eax],al
0000276E  0000              add [eax],al
00002770  0000              add [eax],al
00002772  0000              add [eax],al
00002774  0000              add [eax],al
00002776  0000              add [eax],al
00002778  0000              add [eax],al
0000277A  0000              add [eax],al
0000277C  0000              add [eax],al
0000277E  0000              add [eax],al
00002780  0000              add [eax],al
00002782  0000              add [eax],al
00002784  0000              add [eax],al
00002786  0000              add [eax],al
00002788  0000              add [eax],al
0000278A  0000              add [eax],al
0000278C  0000              add [eax],al
0000278E  0000              add [eax],al
00002790  0000              add [eax],al
00002792  0000              add [eax],al
00002794  0000              add [eax],al
00002796  0000              add [eax],al
00002798  0000              add [eax],al
0000279A  0000              add [eax],al
0000279C  0000              add [eax],al
0000279E  0000              add [eax],al
000027A0  0000              add [eax],al
000027A2  0000              add [eax],al
000027A4  0000              add [eax],al
000027A6  0000              add [eax],al
000027A8  0000              add [eax],al
000027AA  0000              add [eax],al
000027AC  0000              add [eax],al
000027AE  0000              add [eax],al
000027B0  0000              add [eax],al
000027B2  0000              add [eax],al
000027B4  0000              add [eax],al
000027B6  0000              add [eax],al
000027B8  0000              add [eax],al
000027BA  0000              add [eax],al
000027BC  0000              add [eax],al
000027BE  0000              add [eax],al
000027C0  0000              add [eax],al
000027C2  0000              add [eax],al
000027C4  0000              add [eax],al
000027C6  0000              add [eax],al
000027C8  0000              add [eax],al
000027CA  0000              add [eax],al
000027CC  0000              add [eax],al
000027CE  0000              add [eax],al
000027D0  0000              add [eax],al
000027D2  0000              add [eax],al
000027D4  0000              add [eax],al
000027D6  0000              add [eax],al
000027D8  0000              add [eax],al
000027DA  0000              add [eax],al
000027DC  0000              add [eax],al
000027DE  0000              add [eax],al
000027E0  0000              add [eax],al
000027E2  0000              add [eax],al
000027E4  0000              add [eax],al
000027E6  0000              add [eax],al
000027E8  0000              add [eax],al
000027EA  0000              add [eax],al
000027EC  0000              add [eax],al
000027EE  0000              add [eax],al
000027F0  0000              add [eax],al
000027F2  0000              add [eax],al
000027F4  0000              add [eax],al
000027F6  0000              add [eax],al
000027F8  0000              add [eax],al
000027FA  0000              add [eax],al
000027FC  0000              add [eax],al
000027FE  0000              add [eax],al
00002800  0000              add [eax],al
00002802  0000              add [eax],al
00002804  0000              add [eax],al
00002806  0000              add [eax],al
00002808  0000              add [eax],al
0000280A  0000              add [eax],al
0000280C  0000              add [eax],al
0000280E  0000              add [eax],al
00002810  0000              add [eax],al
00002812  0000              add [eax],al
00002814  0000              add [eax],al
00002816  0000              add [eax],al
00002818  0000              add [eax],al
0000281A  0000              add [eax],al
0000281C  0000              add [eax],al
0000281E  0000              add [eax],al
00002820  0000              add [eax],al
00002822  0000              add [eax],al
00002824  0000              add [eax],al
00002826  0000              add [eax],al
00002828  0000              add [eax],al
0000282A  0000              add [eax],al
0000282C  0000              add [eax],al
0000282E  0000              add [eax],al
00002830  0000              add [eax],al
00002832  0000              add [eax],al
00002834  0000              add [eax],al
00002836  0000              add [eax],al
00002838  0000              add [eax],al
0000283A  0000              add [eax],al
0000283C  0000              add [eax],al
0000283E  0000              add [eax],al
00002840  0000              add [eax],al
00002842  0000              add [eax],al
00002844  0000              add [eax],al
00002846  0000              add [eax],al
00002848  0000              add [eax],al
0000284A  0000              add [eax],al
0000284C  0000              add [eax],al
0000284E  0000              add [eax],al
00002850  0000              add [eax],al
00002852  0000              add [eax],al
00002854  0000              add [eax],al
00002856  0000              add [eax],al
00002858  0000              add [eax],al
0000285A  0000              add [eax],al
0000285C  0000              add [eax],al
0000285E  0000              add [eax],al
00002860  0000              add [eax],al
00002862  0000              add [eax],al
00002864  0000              add [eax],al
00002866  0000              add [eax],al
00002868  0000              add [eax],al
0000286A  0000              add [eax],al
0000286C  0000              add [eax],al
0000286E  0000              add [eax],al
00002870  0000              add [eax],al
00002872  0000              add [eax],al
00002874  0000              add [eax],al
00002876  0000              add [eax],al
00002878  0000              add [eax],al
0000287A  0000              add [eax],al
0000287C  0000              add [eax],al
0000287E  0000              add [eax],al
00002880  0000              add [eax],al
00002882  0000              add [eax],al
00002884  0000              add [eax],al
00002886  0000              add [eax],al
00002888  0000              add [eax],al
0000288A  0000              add [eax],al
0000288C  0000              add [eax],al
0000288E  0000              add [eax],al
00002890  0000              add [eax],al
00002892  0000              add [eax],al
00002894  0000              add [eax],al
00002896  0000              add [eax],al
00002898  0000              add [eax],al
0000289A  0000              add [eax],al
0000289C  0000              add [eax],al
0000289E  0000              add [eax],al
000028A0  0000              add [eax],al
000028A2  0000              add [eax],al
000028A4  0000              add [eax],al
000028A6  0000              add [eax],al
000028A8  0000              add [eax],al
000028AA  0000              add [eax],al
000028AC  0000              add [eax],al
000028AE  0000              add [eax],al
000028B0  0000              add [eax],al
000028B2  0000              add [eax],al
000028B4  0000              add [eax],al
000028B6  0000              add [eax],al
000028B8  0000              add [eax],al
000028BA  0000              add [eax],al
000028BC  0000              add [eax],al
000028BE  0000              add [eax],al
000028C0  0000              add [eax],al
000028C2  0000              add [eax],al
000028C4  0000              add [eax],al
000028C6  0000              add [eax],al
000028C8  0000              add [eax],al
000028CA  0000              add [eax],al
000028CC  0000              add [eax],al
000028CE  0000              add [eax],al
000028D0  0000              add [eax],al
000028D2  0000              add [eax],al
000028D4  0000              add [eax],al
000028D6  0000              add [eax],al
000028D8  0000              add [eax],al
000028DA  0000              add [eax],al
000028DC  0000              add [eax],al
000028DE  0000              add [eax],al
000028E0  0000              add [eax],al
000028E2  0000              add [eax],al
000028E4  0000              add [eax],al
000028E6  0000              add [eax],al
000028E8  0000              add [eax],al
000028EA  0000              add [eax],al
000028EC  0000              add [eax],al
000028EE  0000              add [eax],al
000028F0  0000              add [eax],al
000028F2  0000              add [eax],al
000028F4  0000              add [eax],al
000028F6  0000              add [eax],al
000028F8  0000              add [eax],al
000028FA  0000              add [eax],al
000028FC  0000              add [eax],al
000028FE  0000              add [eax],al
00002900  0000              add [eax],al
00002902  0000              add [eax],al
00002904  0000              add [eax],al
00002906  0000              add [eax],al
00002908  0000              add [eax],al
0000290A  0000              add [eax],al
0000290C  0000              add [eax],al
0000290E  0000              add [eax],al
00002910  0000              add [eax],al
00002912  0000              add [eax],al
00002914  0000              add [eax],al
00002916  0000              add [eax],al
00002918  0000              add [eax],al
0000291A  0000              add [eax],al
0000291C  0000              add [eax],al
0000291E  0000              add [eax],al
00002920  0000              add [eax],al
00002922  0000              add [eax],al
00002924  0000              add [eax],al
00002926  0000              add [eax],al
00002928  0000              add [eax],al
0000292A  0000              add [eax],al
0000292C  0000              add [eax],al
0000292E  0000              add [eax],al
00002930  0000              add [eax],al
00002932  0000              add [eax],al
00002934  0000              add [eax],al
00002936  0000              add [eax],al
00002938  0000              add [eax],al
0000293A  0000              add [eax],al
0000293C  0000              add [eax],al
0000293E  0000              add [eax],al
00002940  0000              add [eax],al
00002942  0000              add [eax],al
00002944  0000              add [eax],al
00002946  0000              add [eax],al
00002948  0000              add [eax],al
0000294A  0000              add [eax],al
0000294C  0000              add [eax],al
0000294E  0000              add [eax],al
00002950  0000              add [eax],al
00002952  0000              add [eax],al
00002954  0000              add [eax],al
00002956  0000              add [eax],al
00002958  0000              add [eax],al
0000295A  0000              add [eax],al
0000295C  0000              add [eax],al
0000295E  0000              add [eax],al
00002960  0000              add [eax],al
00002962  0000              add [eax],al
00002964  0000              add [eax],al
00002966  0000              add [eax],al
00002968  0000              add [eax],al
0000296A  0000              add [eax],al
0000296C  0000              add [eax],al
0000296E  0000              add [eax],al
00002970  0000              add [eax],al
00002972  0000              add [eax],al
00002974  0000              add [eax],al
00002976  0000              add [eax],al
00002978  0000              add [eax],al
0000297A  0000              add [eax],al
0000297C  0000              add [eax],al
0000297E  0000              add [eax],al
00002980  0000              add [eax],al
00002982  0000              add [eax],al
00002984  0000              add [eax],al
00002986  0000              add [eax],al
00002988  0000              add [eax],al
0000298A  0000              add [eax],al
0000298C  0000              add [eax],al
0000298E  0000              add [eax],al
00002990  0000              add [eax],al
00002992  0000              add [eax],al
00002994  0000              add [eax],al
00002996  0000              add [eax],al
00002998  0000              add [eax],al
0000299A  0000              add [eax],al
0000299C  0000              add [eax],al
0000299E  0000              add [eax],al
000029A0  0000              add [eax],al
000029A2  0000              add [eax],al
000029A4  0000              add [eax],al
000029A6  0000              add [eax],al
000029A8  0000              add [eax],al
000029AA  0000              add [eax],al
000029AC  0000              add [eax],al
000029AE  0000              add [eax],al
000029B0  0000              add [eax],al
000029B2  0000              add [eax],al
000029B4  0000              add [eax],al
000029B6  0000              add [eax],al
000029B8  0000              add [eax],al
000029BA  0000              add [eax],al
000029BC  0000              add [eax],al
000029BE  0000              add [eax],al
000029C0  0000              add [eax],al
000029C2  0000              add [eax],al
000029C4  0000              add [eax],al
000029C6  0000              add [eax],al
000029C8  0000              add [eax],al
000029CA  0000              add [eax],al
000029CC  0000              add [eax],al
000029CE  0000              add [eax],al
000029D0  0000              add [eax],al
000029D2  0000              add [eax],al
000029D4  0000              add [eax],al
000029D6  0000              add [eax],al
000029D8  0000              add [eax],al
000029DA  0000              add [eax],al
000029DC  0000              add [eax],al
000029DE  0000              add [eax],al
000029E0  0000              add [eax],al
000029E2  0000              add [eax],al
000029E4  0000              add [eax],al
000029E6  0000              add [eax],al
000029E8  0000              add [eax],al
000029EA  0000              add [eax],al
000029EC  0000              add [eax],al
000029EE  0000              add [eax],al
000029F0  0000              add [eax],al
000029F2  0000              add [eax],al
000029F4  0000              add [eax],al
000029F6  0000              add [eax],al
000029F8  0000              add [eax],al
000029FA  0000              add [eax],al
000029FC  0000              add [eax],al
000029FE  0000              add [eax],al
00002A00  0000              add [eax],al
00002A02  0000              add [eax],al
00002A04  0000              add [eax],al
00002A06  0000              add [eax],al
00002A08  0000              add [eax],al
00002A0A  0000              add [eax],al
00002A0C  0000              add [eax],al
00002A0E  0000              add [eax],al
00002A10  0000              add [eax],al
00002A12  0000              add [eax],al
00002A14  0000              add [eax],al
00002A16  0000              add [eax],al
00002A18  0000              add [eax],al
00002A1A  0000              add [eax],al
00002A1C  0000              add [eax],al
00002A1E  0000              add [eax],al
00002A20  0000              add [eax],al
00002A22  0000              add [eax],al
00002A24  0000              add [eax],al
00002A26  0000              add [eax],al
00002A28  0000              add [eax],al
00002A2A  0000              add [eax],al
00002A2C  0000              add [eax],al
00002A2E  0000              add [eax],al
00002A30  0000              add [eax],al
00002A32  0000              add [eax],al
00002A34  0000              add [eax],al
00002A36  0000              add [eax],al
00002A38  0000              add [eax],al
00002A3A  0000              add [eax],al
00002A3C  0000              add [eax],al
00002A3E  0000              add [eax],al
00002A40  0000              add [eax],al
00002A42  0000              add [eax],al
00002A44  0000              add [eax],al
00002A46  0000              add [eax],al
00002A48  0000              add [eax],al
00002A4A  0000              add [eax],al
00002A4C  0000              add [eax],al
00002A4E  0000              add [eax],al
00002A50  0000              add [eax],al
00002A52  0000              add [eax],al
00002A54  0000              add [eax],al
00002A56  0000              add [eax],al
00002A58  0000              add [eax],al
00002A5A  0000              add [eax],al
00002A5C  0000              add [eax],al
00002A5E  0000              add [eax],al
00002A60  0000              add [eax],al
00002A62  0000              add [eax],al
00002A64  0000              add [eax],al
00002A66  0000              add [eax],al
00002A68  0000              add [eax],al
00002A6A  0000              add [eax],al
00002A6C  0000              add [eax],al
00002A6E  0000              add [eax],al
00002A70  0000              add [eax],al
00002A72  0000              add [eax],al
00002A74  0000              add [eax],al
00002A76  0000              add [eax],al
00002A78  0000              add [eax],al
00002A7A  0000              add [eax],al
00002A7C  0000              add [eax],al
00002A7E  0000              add [eax],al
00002A80  0000              add [eax],al
00002A82  0000              add [eax],al
00002A84  0000              add [eax],al
00002A86  0000              add [eax],al
00002A88  0000              add [eax],al
00002A8A  0000              add [eax],al
00002A8C  0000              add [eax],al
00002A8E  0000              add [eax],al
00002A90  0000              add [eax],al
00002A92  0000              add [eax],al
00002A94  0000              add [eax],al
00002A96  0000              add [eax],al
00002A98  0000              add [eax],al
00002A9A  0000              add [eax],al
00002A9C  0000              add [eax],al
00002A9E  0000              add [eax],al
00002AA0  0000              add [eax],al
00002AA2  0000              add [eax],al
00002AA4  0000              add [eax],al
00002AA6  0000              add [eax],al
00002AA8  0000              add [eax],al
00002AAA  0000              add [eax],al
00002AAC  0000              add [eax],al
00002AAE  0000              add [eax],al
00002AB0  0000              add [eax],al
00002AB2  0000              add [eax],al
00002AB4  0000              add [eax],al
00002AB6  0000              add [eax],al
00002AB8  0000              add [eax],al
00002ABA  0000              add [eax],al
00002ABC  0000              add [eax],al
00002ABE  0000              add [eax],al
00002AC0  0000              add [eax],al
00002AC2  0000              add [eax],al
00002AC4  0000              add [eax],al
00002AC6  0000              add [eax],al
00002AC8  0000              add [eax],al
00002ACA  0000              add [eax],al
00002ACC  0000              add [eax],al
00002ACE  0000              add [eax],al
00002AD0  0000              add [eax],al
00002AD2  0000              add [eax],al
00002AD4  0000              add [eax],al
00002AD6  0000              add [eax],al
00002AD8  0000              add [eax],al
00002ADA  0000              add [eax],al
00002ADC  0000              add [eax],al
00002ADE  0000              add [eax],al
00002AE0  0000              add [eax],al
00002AE2  0000              add [eax],al
00002AE4  0000              add [eax],al
00002AE6  0000              add [eax],al
00002AE8  0000              add [eax],al
00002AEA  0000              add [eax],al
00002AEC  0000              add [eax],al
00002AEE  0000              add [eax],al
00002AF0  0000              add [eax],al
00002AF2  0000              add [eax],al
00002AF4  0000              add [eax],al
00002AF6  0000              add [eax],al
00002AF8  0000              add [eax],al
00002AFA  0000              add [eax],al
00002AFC  0000              add [eax],al
00002AFE  0000              add [eax],al
00002B00  0000              add [eax],al
00002B02  0000              add [eax],al
00002B04  0000              add [eax],al
00002B06  0000              add [eax],al
00002B08  0000              add [eax],al
00002B0A  0000              add [eax],al
00002B0C  0000              add [eax],al
00002B0E  0000              add [eax],al
00002B10  0000              add [eax],al
00002B12  0000              add [eax],al
00002B14  0000              add [eax],al
00002B16  0000              add [eax],al
00002B18  0000              add [eax],al
00002B1A  0000              add [eax],al
00002B1C  0000              add [eax],al
00002B1E  0000              add [eax],al
00002B20  0000              add [eax],al
00002B22  0000              add [eax],al
00002B24  0000              add [eax],al
00002B26  0000              add [eax],al
00002B28  0000              add [eax],al
00002B2A  0000              add [eax],al
00002B2C  0000              add [eax],al
00002B2E  0000              add [eax],al
00002B30  0000              add [eax],al
00002B32  0000              add [eax],al
00002B34  0000              add [eax],al
00002B36  0000              add [eax],al
00002B38  0000              add [eax],al
00002B3A  0000              add [eax],al
00002B3C  0000              add [eax],al
00002B3E  0000              add [eax],al
00002B40  0000              add [eax],al
00002B42  0000              add [eax],al
00002B44  0000              add [eax],al
00002B46  0000              add [eax],al
00002B48  0000              add [eax],al
00002B4A  0000              add [eax],al
00002B4C  0000              add [eax],al
00002B4E  0000              add [eax],al
00002B50  0000              add [eax],al
00002B52  0000              add [eax],al
00002B54  0000              add [eax],al
00002B56  0000              add [eax],al
00002B58  0000              add [eax],al
00002B5A  0000              add [eax],al
00002B5C  0000              add [eax],al
00002B5E  0000              add [eax],al
00002B60  0000              add [eax],al
00002B62  0000              add [eax],al
00002B64  0000              add [eax],al
00002B66  0000              add [eax],al
00002B68  0000              add [eax],al
00002B6A  0000              add [eax],al
00002B6C  0000              add [eax],al
00002B6E  0000              add [eax],al
00002B70  0000              add [eax],al
00002B72  0000              add [eax],al
00002B74  0000              add [eax],al
00002B76  0000              add [eax],al
00002B78  0000              add [eax],al
00002B7A  0000              add [eax],al
00002B7C  0000              add [eax],al
00002B7E  0000              add [eax],al
00002B80  0000              add [eax],al
00002B82  0000              add [eax],al
00002B84  0000              add [eax],al
00002B86  0000              add [eax],al
00002B88  0000              add [eax],al
00002B8A  0000              add [eax],al
00002B8C  0000              add [eax],al
00002B8E  0000              add [eax],al
00002B90  0000              add [eax],al
00002B92  0000              add [eax],al
00002B94  0000              add [eax],al
00002B96  0000              add [eax],al
00002B98  0000              add [eax],al
00002B9A  0000              add [eax],al
00002B9C  0000              add [eax],al
00002B9E  0000              add [eax],al
00002BA0  0000              add [eax],al
00002BA2  0000              add [eax],al
00002BA4  0000              add [eax],al
00002BA6  0000              add [eax],al
00002BA8  0000              add [eax],al
00002BAA  0000              add [eax],al
00002BAC  0000              add [eax],al
00002BAE  0000              add [eax],al
00002BB0  0000              add [eax],al
00002BB2  0000              add [eax],al
00002BB4  0000              add [eax],al
00002BB6  0000              add [eax],al
00002BB8  0000              add [eax],al
00002BBA  0000              add [eax],al
00002BBC  0000              add [eax],al
00002BBE  0000              add [eax],al
00002BC0  0000              add [eax],al
00002BC2  0000              add [eax],al
00002BC4  0000              add [eax],al
00002BC6  0000              add [eax],al
00002BC8  0000              add [eax],al
00002BCA  0000              add [eax],al
00002BCC  0000              add [eax],al
00002BCE  0000              add [eax],al
00002BD0  0000              add [eax],al
00002BD2  0000              add [eax],al
00002BD4  0000              add [eax],al
00002BD6  0000              add [eax],al
00002BD8  0000              add [eax],al
00002BDA  0000              add [eax],al
00002BDC  0000              add [eax],al
00002BDE  0000              add [eax],al
00002BE0  0000              add [eax],al
00002BE2  0000              add [eax],al
00002BE4  0000              add [eax],al
00002BE6  0000              add [eax],al
00002BE8  0000              add [eax],al
00002BEA  0000              add [eax],al
00002BEC  0000              add [eax],al
00002BEE  0000              add [eax],al
00002BF0  0000              add [eax],al
00002BF2  0000              add [eax],al
00002BF4  0000              add [eax],al
00002BF6  0000              add [eax],al
00002BF8  0000              add [eax],al
00002BFA  0000              add [eax],al
00002BFC  0000              add [eax],al
00002BFE  0000              add [eax],al
00002C00  0000              add [eax],al
00002C02  0000              add [eax],al
00002C04  0000              add [eax],al
00002C06  0000              add [eax],al
00002C08  0000              add [eax],al
00002C0A  0000              add [eax],al
00002C0C  0000              add [eax],al
00002C0E  0000              add [eax],al
00002C10  0000              add [eax],al
00002C12  0000              add [eax],al
00002C14  0000              add [eax],al
00002C16  0000              add [eax],al
00002C18  0000              add [eax],al
00002C1A  0000              add [eax],al
00002C1C  0000              add [eax],al
00002C1E  0000              add [eax],al
00002C20  0000              add [eax],al
00002C22  0000              add [eax],al
00002C24  0000              add [eax],al
00002C26  0000              add [eax],al
00002C28  0000              add [eax],al
00002C2A  0000              add [eax],al
00002C2C  0000              add [eax],al
00002C2E  0000              add [eax],al
00002C30  0000              add [eax],al
00002C32  0000              add [eax],al
00002C34  0000              add [eax],al
00002C36  0000              add [eax],al
00002C38  0000              add [eax],al
00002C3A  0000              add [eax],al
00002C3C  0000              add [eax],al
00002C3E  0000              add [eax],al
00002C40  0000              add [eax],al
00002C42  0000              add [eax],al
00002C44  0000              add [eax],al
00002C46  0000              add [eax],al
00002C48  0000              add [eax],al
00002C4A  0000              add [eax],al
00002C4C  0000              add [eax],al
00002C4E  0000              add [eax],al
00002C50  0000              add [eax],al
00002C52  0000              add [eax],al
00002C54  0000              add [eax],al
00002C56  0000              add [eax],al
00002C58  0000              add [eax],al
00002C5A  0000              add [eax],al
00002C5C  0000              add [eax],al
00002C5E  0000              add [eax],al
00002C60  0000              add [eax],al
00002C62  0000              add [eax],al
00002C64  0000              add [eax],al
00002C66  0000              add [eax],al
00002C68  0000              add [eax],al
00002C6A  0000              add [eax],al
00002C6C  0000              add [eax],al
00002C6E  0000              add [eax],al
00002C70  0000              add [eax],al
00002C72  0000              add [eax],al
00002C74  0000              add [eax],al
00002C76  0000              add [eax],al
00002C78  0000              add [eax],al
00002C7A  0000              add [eax],al
00002C7C  0000              add [eax],al
00002C7E  0000              add [eax],al
00002C80  0000              add [eax],al
00002C82  0000              add [eax],al
00002C84  0000              add [eax],al
00002C86  0000              add [eax],al
00002C88  0000              add [eax],al
00002C8A  0000              add [eax],al
00002C8C  0000              add [eax],al
00002C8E  0000              add [eax],al
00002C90  0000              add [eax],al
00002C92  0000              add [eax],al
00002C94  0000              add [eax],al
00002C96  0000              add [eax],al
00002C98  0000              add [eax],al
00002C9A  0000              add [eax],al
00002C9C  0000              add [eax],al
00002C9E  0000              add [eax],al
00002CA0  0000              add [eax],al
00002CA2  0000              add [eax],al
00002CA4  0000              add [eax],al
00002CA6  0000              add [eax],al
00002CA8  0000              add [eax],al
00002CAA  0000              add [eax],al
00002CAC  0000              add [eax],al
00002CAE  0000              add [eax],al
00002CB0  0000              add [eax],al
00002CB2  0000              add [eax],al
00002CB4  0000              add [eax],al
00002CB6  0000              add [eax],al
00002CB8  0000              add [eax],al
00002CBA  0000              add [eax],al
00002CBC  0000              add [eax],al
00002CBE  0000              add [eax],al
00002CC0  0000              add [eax],al
00002CC2  0000              add [eax],al
00002CC4  0000              add [eax],al
00002CC6  0000              add [eax],al
00002CC8  0000              add [eax],al
00002CCA  0000              add [eax],al
00002CCC  0000              add [eax],al
00002CCE  0000              add [eax],al
00002CD0  0000              add [eax],al
00002CD2  0000              add [eax],al
00002CD4  0000              add [eax],al
00002CD6  0000              add [eax],al
00002CD8  0000              add [eax],al
00002CDA  0000              add [eax],al
00002CDC  0000              add [eax],al
00002CDE  0000              add [eax],al
00002CE0  0000              add [eax],al
00002CE2  0000              add [eax],al
00002CE4  0000              add [eax],al
00002CE6  0000              add [eax],al
00002CE8  0000              add [eax],al
00002CEA  0000              add [eax],al
00002CEC  0000              add [eax],al
00002CEE  0000              add [eax],al
00002CF0  0000              add [eax],al
00002CF2  0000              add [eax],al
00002CF4  0000              add [eax],al
00002CF6  0000              add [eax],al
00002CF8  0000              add [eax],al
00002CFA  0000              add [eax],al
00002CFC  0000              add [eax],al
00002CFE  0000              add [eax],al
00002D00  0000              add [eax],al
00002D02  0000              add [eax],al
00002D04  0000              add [eax],al
00002D06  0000              add [eax],al
00002D08  0000              add [eax],al
00002D0A  0000              add [eax],al
00002D0C  0000              add [eax],al
00002D0E  0000              add [eax],al
00002D10  0000              add [eax],al
00002D12  0000              add [eax],al
00002D14  0000              add [eax],al
00002D16  0000              add [eax],al
00002D18  0000              add [eax],al
00002D1A  0000              add [eax],al
00002D1C  0000              add [eax],al
00002D1E  0000              add [eax],al
00002D20  0000              add [eax],al
00002D22  0000              add [eax],al
00002D24  0000              add [eax],al
00002D26  0000              add [eax],al
00002D28  0000              add [eax],al
00002D2A  0000              add [eax],al
00002D2C  0000              add [eax],al
00002D2E  0000              add [eax],al
00002D30  0000              add [eax],al
00002D32  0000              add [eax],al
00002D34  0000              add [eax],al
00002D36  0000              add [eax],al
00002D38  0000              add [eax],al
00002D3A  0000              add [eax],al
00002D3C  0000              add [eax],al
00002D3E  0000              add [eax],al
00002D40  0000              add [eax],al
00002D42  0000              add [eax],al
00002D44  0000              add [eax],al
00002D46  0000              add [eax],al
00002D48  0000              add [eax],al
00002D4A  0000              add [eax],al
00002D4C  0000              add [eax],al
00002D4E  0000              add [eax],al
00002D50  0000              add [eax],al
00002D52  0000              add [eax],al
00002D54  0000              add [eax],al
00002D56  0000              add [eax],al
00002D58  0000              add [eax],al
00002D5A  0000              add [eax],al
00002D5C  0000              add [eax],al
00002D5E  0000              add [eax],al
00002D60  0000              add [eax],al
00002D62  0000              add [eax],al
00002D64  0000              add [eax],al
00002D66  0000              add [eax],al
00002D68  0000              add [eax],al
00002D6A  0000              add [eax],al
00002D6C  0000              add [eax],al
00002D6E  0000              add [eax],al
00002D70  0000              add [eax],al
00002D72  0000              add [eax],al
00002D74  0000              add [eax],al
00002D76  0000              add [eax],al
00002D78  0000              add [eax],al
00002D7A  0000              add [eax],al
00002D7C  0000              add [eax],al
00002D7E  0000              add [eax],al
00002D80  0000              add [eax],al
00002D82  0000              add [eax],al
00002D84  0000              add [eax],al
00002D86  0000              add [eax],al
00002D88  0000              add [eax],al
00002D8A  0000              add [eax],al
00002D8C  0000              add [eax],al
00002D8E  0000              add [eax],al
00002D90  0000              add [eax],al
00002D92  0000              add [eax],al
00002D94  0000              add [eax],al
00002D96  0000              add [eax],al
00002D98  0000              add [eax],al
00002D9A  0000              add [eax],al
00002D9C  0000              add [eax],al
00002D9E  0000              add [eax],al
00002DA0  0000              add [eax],al
00002DA2  0000              add [eax],al
00002DA4  0000              add [eax],al
00002DA6  0000              add [eax],al
00002DA8  0000              add [eax],al
00002DAA  0000              add [eax],al
00002DAC  0000              add [eax],al
00002DAE  0000              add [eax],al
00002DB0  0000              add [eax],al
00002DB2  0000              add [eax],al
00002DB4  0000              add [eax],al
00002DB6  0000              add [eax],al
00002DB8  0000              add [eax],al
00002DBA  0000              add [eax],al
00002DBC  0000              add [eax],al
00002DBE  0000              add [eax],al
00002DC0  0000              add [eax],al
00002DC2  0000              add [eax],al
00002DC4  0000              add [eax],al
00002DC6  0000              add [eax],al
00002DC8  0000              add [eax],al
00002DCA  0000              add [eax],al
00002DCC  0000              add [eax],al
00002DCE  0000              add [eax],al
00002DD0  0000              add [eax],al
00002DD2  0000              add [eax],al
00002DD4  0000              add [eax],al
00002DD6  0000              add [eax],al
00002DD8  0000              add [eax],al
00002DDA  0000              add [eax],al
00002DDC  0000              add [eax],al
00002DDE  0000              add [eax],al
00002DE0  0000              add [eax],al
00002DE2  0000              add [eax],al
00002DE4  0000              add [eax],al
00002DE6  0000              add [eax],al
00002DE8  0000              add [eax],al
00002DEA  0000              add [eax],al
00002DEC  0000              add [eax],al
00002DEE  0000              add [eax],al
00002DF0  0000              add [eax],al
00002DF2  0000              add [eax],al
00002DF4  0000              add [eax],al
00002DF6  0000              add [eax],al
00002DF8  0000              add [eax],al
00002DFA  0000              add [eax],al
00002DFC  0000              add [eax],al
00002DFE  0000              add [eax],al
00002E00  0000              add [eax],al
00002E02  0000              add [eax],al
00002E04  0000              add [eax],al
00002E06  0000              add [eax],al
00002E08  0000              add [eax],al
00002E0A  0000              add [eax],al
00002E0C  0000              add [eax],al
00002E0E  0000              add [eax],al
00002E10  0000              add [eax],al
00002E12  0000              add [eax],al
00002E14  0000              add [eax],al
00002E16  0000              add [eax],al
00002E18  0000              add [eax],al
00002E1A  0000              add [eax],al
00002E1C  0000              add [eax],al
00002E1E  0000              add [eax],al
00002E20  0000              add [eax],al
00002E22  0000              add [eax],al
00002E24  0000              add [eax],al
00002E26  0000              add [eax],al
00002E28  0000              add [eax],al
00002E2A  0000              add [eax],al
00002E2C  0000              add [eax],al
00002E2E  0000              add [eax],al
00002E30  0000              add [eax],al
00002E32  0000              add [eax],al
00002E34  0000              add [eax],al
00002E36  0000              add [eax],al
00002E38  0000              add [eax],al
00002E3A  0000              add [eax],al
00002E3C  0000              add [eax],al
00002E3E  0000              add [eax],al
00002E40  0000              add [eax],al
00002E42  0000              add [eax],al
00002E44  0000              add [eax],al
00002E46  0000              add [eax],al
00002E48  0000              add [eax],al
00002E4A  0000              add [eax],al
00002E4C  0000              add [eax],al
00002E4E  0000              add [eax],al
00002E50  0000              add [eax],al
00002E52  0000              add [eax],al
00002E54  0000              add [eax],al
00002E56  0000              add [eax],al
00002E58  0000              add [eax],al
00002E5A  0000              add [eax],al
00002E5C  0000              add [eax],al
00002E5E  0000              add [eax],al
00002E60  0000              add [eax],al
00002E62  0000              add [eax],al
00002E64  0000              add [eax],al
00002E66  0000              add [eax],al
00002E68  0000              add [eax],al
00002E6A  0000              add [eax],al
00002E6C  0000              add [eax],al
00002E6E  0000              add [eax],al
00002E70  0000              add [eax],al
00002E72  0000              add [eax],al
00002E74  0000              add [eax],al
00002E76  0000              add [eax],al
00002E78  0000              add [eax],al
00002E7A  0000              add [eax],al
00002E7C  0000              add [eax],al
00002E7E  0000              add [eax],al
00002E80  0000              add [eax],al
00002E82  0000              add [eax],al
00002E84  0000              add [eax],al
00002E86  0000              add [eax],al
00002E88  0000              add [eax],al
00002E8A  0000              add [eax],al
00002E8C  0000              add [eax],al
00002E8E  0000              add [eax],al
00002E90  0000              add [eax],al
00002E92  0000              add [eax],al
00002E94  0000              add [eax],al
00002E96  0000              add [eax],al
00002E98  0000              add [eax],al
00002E9A  0000              add [eax],al
00002E9C  0000              add [eax],al
00002E9E  0000              add [eax],al
00002EA0  0000              add [eax],al
00002EA2  0000              add [eax],al
00002EA4  0000              add [eax],al
00002EA6  0000              add [eax],al
00002EA8  0000              add [eax],al
00002EAA  0000              add [eax],al
00002EAC  0000              add [eax],al
00002EAE  0000              add [eax],al
00002EB0  0000              add [eax],al
00002EB2  0000              add [eax],al
00002EB4  0000              add [eax],al
00002EB6  0000              add [eax],al
00002EB8  0000              add [eax],al
00002EBA  0000              add [eax],al
00002EBC  0000              add [eax],al
00002EBE  0000              add [eax],al
00002EC0  0000              add [eax],al
00002EC2  0000              add [eax],al
00002EC4  0000              add [eax],al
00002EC6  0000              add [eax],al
00002EC8  0000              add [eax],al
00002ECA  0000              add [eax],al
00002ECC  0000              add [eax],al
00002ECE  0000              add [eax],al
00002ED0  0000              add [eax],al
00002ED2  0000              add [eax],al
00002ED4  0000              add [eax],al
00002ED6  0000              add [eax],al
00002ED8  0000              add [eax],al
00002EDA  0000              add [eax],al
00002EDC  0000              add [eax],al
00002EDE  0000              add [eax],al
00002EE0  0000              add [eax],al
00002EE2  0000              add [eax],al
00002EE4  0000              add [eax],al
00002EE6  0000              add [eax],al
00002EE8  0000              add [eax],al
00002EEA  0000              add [eax],al
00002EEC  0000              add [eax],al
00002EEE  0000              add [eax],al
00002EF0  0000              add [eax],al
00002EF2  0000              add [eax],al
00002EF4  0000              add [eax],al
00002EF6  0000              add [eax],al
00002EF8  0000              add [eax],al
00002EFA  0000              add [eax],al
00002EFC  0000              add [eax],al
00002EFE  0000              add [eax],al
00002F00  0000              add [eax],al
00002F02  0000              add [eax],al
00002F04  0000              add [eax],al
00002F06  0000              add [eax],al
00002F08  0000              add [eax],al
00002F0A  0000              add [eax],al
00002F0C  0000              add [eax],al
00002F0E  0000              add [eax],al
00002F10  0000              add [eax],al
00002F12  0000              add [eax],al
00002F14  0000              add [eax],al
00002F16  0000              add [eax],al
00002F18  0000              add [eax],al
00002F1A  0000              add [eax],al
00002F1C  0000              add [eax],al
00002F1E  0000              add [eax],al
00002F20  0000              add [eax],al
00002F22  0000              add [eax],al
00002F24  0000              add [eax],al
00002F26  0000              add [eax],al
00002F28  0000              add [eax],al
00002F2A  0000              add [eax],al
00002F2C  0000              add [eax],al
00002F2E  0000              add [eax],al
00002F30  0000              add [eax],al
00002F32  0000              add [eax],al
00002F34  0000              add [eax],al
00002F36  0000              add [eax],al
00002F38  0000              add [eax],al
00002F3A  0000              add [eax],al
00002F3C  0000              add [eax],al
00002F3E  0000              add [eax],al
00002F40  0000              add [eax],al
00002F42  0000              add [eax],al
00002F44  0000              add [eax],al
00002F46  0000              add [eax],al
00002F48  0000              add [eax],al
00002F4A  0000              add [eax],al
00002F4C  0000              add [eax],al
00002F4E  0000              add [eax],al
00002F50  0000              add [eax],al
00002F52  0000              add [eax],al
00002F54  0000              add [eax],al
00002F56  0000              add [eax],al
00002F58  0000              add [eax],al
00002F5A  0000              add [eax],al
00002F5C  0000              add [eax],al
00002F5E  0000              add [eax],al
00002F60  0000              add [eax],al
00002F62  0000              add [eax],al
00002F64  0000              add [eax],al
00002F66  0000              add [eax],al
00002F68  0000              add [eax],al
00002F6A  0000              add [eax],al
00002F6C  0000              add [eax],al
00002F6E  0000              add [eax],al
00002F70  0000              add [eax],al
00002F72  0000              add [eax],al
00002F74  0000              add [eax],al
00002F76  0000              add [eax],al
00002F78  0000              add [eax],al
00002F7A  0000              add [eax],al
00002F7C  0000              add [eax],al
00002F7E  0000              add [eax],al
00002F80  0000              add [eax],al
00002F82  0000              add [eax],al
00002F84  0000              add [eax],al
00002F86  0000              add [eax],al
00002F88  0000              add [eax],al
00002F8A  0000              add [eax],al
00002F8C  0000              add [eax],al
00002F8E  0000              add [eax],al
00002F90  0000              add [eax],al
00002F92  0000              add [eax],al
00002F94  0000              add [eax],al
00002F96  0000              add [eax],al
00002F98  0000              add [eax],al
00002F9A  0000              add [eax],al
00002F9C  0000              add [eax],al
00002F9E  0000              add [eax],al
00002FA0  0000              add [eax],al
00002FA2  0000              add [eax],al
00002FA4  0000              add [eax],al
00002FA6  0000              add [eax],al
00002FA8  0000              add [eax],al
00002FAA  0000              add [eax],al
00002FAC  0000              add [eax],al
00002FAE  0000              add [eax],al
00002FB0  0000              add [eax],al
00002FB2  0000              add [eax],al
00002FB4  0000              add [eax],al
00002FB6  0000              add [eax],al
00002FB8  0000              add [eax],al
00002FBA  0000              add [eax],al
00002FBC  0000              add [eax],al
00002FBE  0000              add [eax],al
00002FC0  0000              add [eax],al
00002FC2  0000              add [eax],al
00002FC4  0000              add [eax],al
00002FC6  0000              add [eax],al
00002FC8  0000              add [eax],al
00002FCA  0000              add [eax],al
00002FCC  0000              add [eax],al
00002FCE  0000              add [eax],al
00002FD0  0000              add [eax],al
00002FD2  0000              add [eax],al
00002FD4  0000              add [eax],al
00002FD6  0000              add [eax],al
00002FD8  0000              add [eax],al
00002FDA  0000              add [eax],al
00002FDC  0000              add [eax],al
00002FDE  0000              add [eax],al
00002FE0  0000              add [eax],al
00002FE2  0000              add [eax],al
00002FE4  0000              add [eax],al
00002FE6  0000              add [eax],al
00002FE8  0000              add [eax],al
00002FEA  0000              add [eax],al
00002FEC  0000              add [eax],al
00002FEE  0000              add [eax],al
00002FF0  0000              add [eax],al
00002FF2  0000              add [eax],al
00002FF4  0000              add [eax],al
00002FF6  0000              add [eax],al
00002FF8  0000              add [eax],al
00002FFA  0000              add [eax],al
00002FFC  0000              add [eax],al
00002FFE  0000              add [eax],al
00003000  0000              add [eax],al
00003002  0000              add [eax],al
00003004  0000              add [eax],al
00003006  0000              add [eax],al
00003008  0000              add [eax],al
0000300A  0000              add [eax],al
0000300C  0000              add [eax],al
0000300E  0000              add [eax],al
00003010  0000              add [eax],al
00003012  0000              add [eax],al
00003014  0000              add [eax],al
00003016  0000              add [eax],al
00003018  0000              add [eax],al
0000301A  0000              add [eax],al
0000301C  0000              add [eax],al
0000301E  0000              add [eax],al
00003020  0000              add [eax],al
00003022  0000              add [eax],al
00003024  0000              add [eax],al
00003026  0000              add [eax],al
00003028  0000              add [eax],al
0000302A  0000              add [eax],al
0000302C  0000              add [eax],al
0000302E  0000              add [eax],al
00003030  0000              add [eax],al
00003032  0000              add [eax],al
00003034  0000              add [eax],al
00003036  0000              add [eax],al
00003038  0000              add [eax],al
0000303A  0000              add [eax],al
0000303C  0000              add [eax],al
0000303E  0000              add [eax],al
00003040  0000              add [eax],al
00003042  0000              add [eax],al
00003044  0000              add [eax],al
00003046  0000              add [eax],al
00003048  0000              add [eax],al
0000304A  0000              add [eax],al
0000304C  0000              add [eax],al
0000304E  0000              add [eax],al
00003050  0000              add [eax],al
00003052  0000              add [eax],al
00003054  0000              add [eax],al
00003056  0000              add [eax],al
00003058  0000              add [eax],al
0000305A  0000              add [eax],al
0000305C  0000              add [eax],al
0000305E  0000              add [eax],al
00003060  0000              add [eax],al
00003062  0000              add [eax],al
00003064  0000              add [eax],al
00003066  0000              add [eax],al
00003068  0000              add [eax],al
0000306A  0000              add [eax],al
0000306C  0000              add [eax],al
0000306E  0000              add [eax],al
00003070  0000              add [eax],al
00003072  0000              add [eax],al
00003074  0000              add [eax],al
00003076  0000              add [eax],al
00003078  0000              add [eax],al
0000307A  0000              add [eax],al
0000307C  0000              add [eax],al
0000307E  0000              add [eax],al
00003080  0000              add [eax],al
00003082  0000              add [eax],al
00003084  0000              add [eax],al
00003086  0000              add [eax],al
00003088  0000              add [eax],al
0000308A  0000              add [eax],al
0000308C  0000              add [eax],al
0000308E  0000              add [eax],al
00003090  0000              add [eax],al
00003092  0000              add [eax],al
00003094  0000              add [eax],al
00003096  0000              add [eax],al
00003098  0000              add [eax],al
0000309A  0000              add [eax],al
0000309C  0000              add [eax],al
0000309E  0000              add [eax],al
000030A0  0000              add [eax],al
000030A2  0000              add [eax],al
000030A4  0000              add [eax],al
000030A6  0000              add [eax],al
000030A8  0000              add [eax],al
000030AA  0000              add [eax],al
000030AC  0000              add [eax],al
000030AE  0000              add [eax],al
000030B0  0000              add [eax],al
000030B2  0000              add [eax],al
000030B4  0000              add [eax],al
000030B6  0000              add [eax],al
000030B8  0000              add [eax],al
000030BA  0000              add [eax],al
000030BC  0000              add [eax],al
000030BE  0000              add [eax],al
000030C0  0000              add [eax],al
000030C2  0000              add [eax],al
000030C4  0000              add [eax],al
000030C6  0000              add [eax],al
000030C8  0000              add [eax],al
000030CA  0000              add [eax],al
000030CC  0000              add [eax],al
000030CE  0000              add [eax],al
000030D0  0000              add [eax],al
000030D2  0000              add [eax],al
000030D4  0000              add [eax],al
000030D6  0000              add [eax],al
000030D8  0000              add [eax],al
000030DA  0000              add [eax],al
000030DC  0000              add [eax],al
000030DE  0000              add [eax],al
000030E0  0000              add [eax],al
000030E2  0000              add [eax],al
000030E4  0000              add [eax],al
000030E6  0000              add [eax],al
000030E8  0000              add [eax],al
000030EA  0000              add [eax],al
000030EC  0000              add [eax],al
000030EE  0000              add [eax],al
000030F0  0000              add [eax],al
000030F2  0000              add [eax],al
000030F4  0000              add [eax],al
000030F6  0000              add [eax],al
000030F8  0000              add [eax],al
000030FA  0000              add [eax],al
000030FC  0000              add [eax],al
000030FE  0000              add [eax],al
00003100  0000              add [eax],al
00003102  0000              add [eax],al
00003104  0000              add [eax],al
00003106  0000              add [eax],al
00003108  0000              add [eax],al
0000310A  0000              add [eax],al
0000310C  0000              add [eax],al
0000310E  0000              add [eax],al
00003110  0000              add [eax],al
00003112  0000              add [eax],al
00003114  0000              add [eax],al
00003116  0000              add [eax],al
00003118  0000              add [eax],al
0000311A  0000              add [eax],al
0000311C  0000              add [eax],al
0000311E  0000              add [eax],al
00003120  0000              add [eax],al
00003122  0000              add [eax],al
00003124  0000              add [eax],al
00003126  0000              add [eax],al
00003128  0000              add [eax],al
0000312A  0000              add [eax],al
0000312C  0000              add [eax],al
0000312E  0000              add [eax],al
00003130  0000              add [eax],al
00003132  0000              add [eax],al
00003134  0000              add [eax],al
00003136  0000              add [eax],al
00003138  0000              add [eax],al
0000313A  0000              add [eax],al
0000313C  0000              add [eax],al
0000313E  0000              add [eax],al
00003140  0000              add [eax],al
00003142  0000              add [eax],al
00003144  0000              add [eax],al
00003146  0000              add [eax],al
00003148  0000              add [eax],al
0000314A  0000              add [eax],al
0000314C  0000              add [eax],al
0000314E  0000              add [eax],al
00003150  0000              add [eax],al
00003152  0000              add [eax],al
00003154  0000              add [eax],al
00003156  0000              add [eax],al
00003158  0000              add [eax],al
0000315A  0000              add [eax],al
0000315C  0000              add [eax],al
0000315E  0000              add [eax],al
00003160  0000              add [eax],al
00003162  0000              add [eax],al
00003164  0000              add [eax],al
00003166  0000              add [eax],al
00003168  0000              add [eax],al
0000316A  0000              add [eax],al
0000316C  0000              add [eax],al
0000316E  0000              add [eax],al
00003170  0000              add [eax],al
00003172  0000              add [eax],al
00003174  0000              add [eax],al
00003176  0000              add [eax],al
00003178  0000              add [eax],al
0000317A  0000              add [eax],al
0000317C  0000              add [eax],al
0000317E  0000              add [eax],al
00003180  0000              add [eax],al
00003182  0000              add [eax],al
00003184  0000              add [eax],al
00003186  0000              add [eax],al
00003188  0000              add [eax],al
0000318A  0000              add [eax],al
0000318C  0000              add [eax],al
0000318E  0000              add [eax],al
00003190  0000              add [eax],al
00003192  0000              add [eax],al
00003194  0000              add [eax],al
00003196  0000              add [eax],al
00003198  0000              add [eax],al
0000319A  0000              add [eax],al
0000319C  0000              add [eax],al
0000319E  0000              add [eax],al
000031A0  0000              add [eax],al
000031A2  0000              add [eax],al
000031A4  0000              add [eax],al
000031A6  0000              add [eax],al
000031A8  0000              add [eax],al
000031AA  0000              add [eax],al
000031AC  0000              add [eax],al
000031AE  0000              add [eax],al
000031B0  0000              add [eax],al
000031B2  0000              add [eax],al
000031B4  0000              add [eax],al
000031B6  0000              add [eax],al
000031B8  0000              add [eax],al
000031BA  0000              add [eax],al
000031BC  0000              add [eax],al
000031BE  0000              add [eax],al
000031C0  0000              add [eax],al
000031C2  0000              add [eax],al
000031C4  0000              add [eax],al
000031C6  0000              add [eax],al
000031C8  0000              add [eax],al
000031CA  0000              add [eax],al
000031CC  0000              add [eax],al
000031CE  0000              add [eax],al
000031D0  0000              add [eax],al
000031D2  0000              add [eax],al
000031D4  0000              add [eax],al
000031D6  0000              add [eax],al
000031D8  0000              add [eax],al
000031DA  0000              add [eax],al
000031DC  0000              add [eax],al
000031DE  0000              add [eax],al
000031E0  0000              add [eax],al
000031E2  0000              add [eax],al
000031E4  0000              add [eax],al
000031E6  0000              add [eax],al
000031E8  0000              add [eax],al
000031EA  0000              add [eax],al
000031EC  0000              add [eax],al
000031EE  0000              add [eax],al
000031F0  0000              add [eax],al
000031F2  0000              add [eax],al
000031F4  0000              add [eax],al
000031F6  0000              add [eax],al
000031F8  0000              add [eax],al
000031FA  0000              add [eax],al
000031FC  0000              add [eax],al
000031FE  0000              add [eax],al
00003200  47                inc edi
00003201  43                inc ebx
00003202  43                inc ebx
00003203  3A20              cmp ah,[eax]
00003205  28474E            sub [edi+0x4e],al
00003208  55                push ebp
00003209  2920              sub [eax],esp
0000320B  31352E312E31      xor [dword 0x312e312e],esi
00003211  2032              and [edx],dh
00003213  3032              xor [edx],dh
00003215  3530343235        xor eax,0x35323430
0000321A  0000              add [eax],al
0000321C  0000              add [eax],al
0000321E  0000              add [eax],al
00003220  0000              add [eax],al
00003222  0000              add [eax],al
00003224  0000              add [eax],al
00003226  0000              add [eax],al
00003228  0000              add [eax],al
0000322A  0000              add [eax],al
0000322C  0100              add [eax],eax
0000322E  0000              add [eax],al
00003230  0000              add [eax],al
00003232  0000              add [eax],al
00003234  0000              add [eax],al
00003236  0000              add [eax],al
00003238  0400              add al,0x0
0000323A  F1                int1
0000323B  FF19              call far [ecx]
0000323D  0000              add [eax],al
0000323F  0000              add [eax],al
00003241  0000              add [eax],al
00003243  0000              add [eax],al
00003245  0000              add [eax],al
00003247  000400            add [eax+eax],al
0000324A  F1                int1
0000324B  FF00              inc dword [eax]
0000324D  0000              add [eax],al
0000324F  0000              add [eax],al
00003251  0000              add [eax],al
00003253  0000              add [eax],al
00003255  0000              add [eax],al
00003257  000400            add [eax+eax],al
0000325A  F1                int1
0000325B  FF22              jmp [edx]
0000325D  0000              add [eax],al
0000325F  00F4              add ah,dh
00003261  3F                aas
00003262  0000              add [eax],al
00003264  0000              add [eax],al
00003266  0000              add [eax],al
00003268  0100              add [eax],eax
0000326A  0300              add eax,[eax]
0000326C  3800              cmp [eax],al
0000326E  0000              add [eax],al
00003270  59                pop ecx
00003271  1400              adc al,0x0
00003273  001F              add [edi],bl
00003275  0000              add [eax],al
00003277  0012              add [edx],dl
00003279  0201              add al,[ecx]
0000327B  004F00            add [edi+0x0],cl
0000327E  0000              add [eax],al
00003280  3A1400            cmp dl,[eax+eax]
00003283  001F              add [edi],bl
00003285  0000              add [eax],al
00003287  0012              add [edx],dl
00003289  0001              add [ecx],al
0000328B  005500            add [ebp+0x0],dl
0000328E  0000              add [eax],al
00003290  96                xchg eax,esi
00003291  1200              adc al,[eax]
00003293  00C6              add dh,al
00003295  0000              add [eax],al
00003297  0012              add [edx],dl
00003299  0001              add [ecx],al
0000329B  006000            add [eax+0x0],ah
0000329E  0000              add [eax],al
000032A0  0A1500000000      or dl,[dword 0x0]
000032A6  0000              add [eax],al
000032A8  1202              adc al,[edx]
000032AA  0100              add [eax],eax
000032AC  7600              jna 0x32ae
000032AE  0000              add [eax],al
000032B0  7C11              jl 0x32c3
000032B2  0000              add [eax],al
000032B4  6800000012        push dword 0x12000000
000032B9  0001              add [ecx],al
000032BB  00810000001E      add [ecx+0x1e000000],al
000032C1  1100              adc [eax],eax
000032C3  005E00            add [esi+0x0],bl
000032C6  0000              add [eax],al
000032C8  1200              adc al,[eax]
000032CA  0100              add [eax],eax
000032CC  8C00              mov [eax],es
000032CE  0000              add [eax],al
000032D0  17                pop ss
000032D1  1000              adc [eax],al
000032D3  003E              add [esi],bh
000032D5  0000              add [eax],al
000032D7  0012              add [edx],dl
000032D9  0001              add [ecx],al
000032DB  009D00000000      add [ebp+0x0],bl
000032E1  0000              add [eax],al
000032E3  0000              add [eax],al
000032E5  0000              add [eax],al
000032E7  0010              add [eax],dl
000032E9  0000              add [eax],al
000032EB  009800000000      add [eax+0x0],bl
000032F1  40                inc eax
000032F2  0000              add [eax],al
000032F4  0000              add [eax],al
000032F6  0000              add [eax],al
000032F8  1000              adc [eax],al
000032FA  0300              add eax,[eax]
000032FC  A4                movsb
000032FD  0000              add [eax],al
000032FF  007814            add [eax+0x14],bh
00003302  0000              add [eax],al
00003304  92                xchg eax,edx
00003305  0000              add [eax],al
00003307  0012              add [edx],dl
00003309  0001              add [ecx],al
0000330B  00A900000055      add [ecx+0x55000000],ch
00003311  1000              adc [eax],al
00003313  0027              add [edi],ah
00003315  0000              add [eax],al
00003317  0012              add [edx],dl
00003319  0001              add [ecx],al
0000331B  00B6000000CE      add [esi-0x32000000],dh
00003321  1000              adc [eax],al
00003323  002B              add [ebx],ch
00003325  0000              add [eax],al
00003327  0012              add [edx],dl
00003329  0001              add [ecx],al
0000332B  00C4              add ah,al
0000332D  0000              add [eax],al
0000332F  00CA              add dl,cl
00003331  1300              adc eax,[eax]
00003333  007000            add [eax+0x0],dh
00003336  0000              add [eax],al
00003338  1200              adc al,[eax]
0000333A  0100              add [eax],eax
0000333C  CD00              int 0x0
0000333E  0000              add [eax],al
00003340  E411              in al,0x11
00003342  0000              add [eax],al
00003344  B200              mov dl,0x0
00003346  0000              add [eax],al
00003348  1200              adc al,[eax]
0000334A  0100              add [eax],eax
0000334C  DE00              fiadd word [eax]
0000334E  0000              add [eax],al
00003350  7C10              jl 0x3362
00003352  0000              add [eax],al
00003354  2900              sub [eax],eax
00003356  0000              add [eax],al
00003358  1200              adc al,[eax]
0000335A  0100              add [eax],eax
0000335C  EC                in al,dx
0000335D  0000              add [eax],al
0000335F  0000              add [eax],al
00003361  40                inc eax
00003362  0000              add [eax],al
00003364  0000              add [eax],al
00003366  0000              add [eax],al
00003368  1000              adc [eax],al
0000336A  0300              add eax,[eax]
0000336C  F30000            rep add [eax],al
0000336F  0000              add [eax],al
00003371  40                inc eax
00003372  0000              add [eax],al
00003374  0000              add [eax],al
00003376  0000              add [eax],al
00003378  1000              adc [eax],al
0000337A  0300              add eax,[eax]
0000337C  F8                clc
0000337D  0000              add [eax],al
0000337F  00A510000029      add [ebp+0x29000010],ah
00003385  0000              add [eax],al
00003387  0012              add [edx],dl
00003389  0001              add [ecx],al
0000338B  00050100005C      add [dword 0x5c000001],al
00003391  1300              adc eax,[eax]
00003393  006E00            add [esi+0x0],ch
00003396  0000              add [eax],al
00003398  1200              adc al,[eax]
0000339A  0100              add [eax],eax
0000339C  1201              adc al,[ecx]
0000339E  0000              add [eax],al
000033A0  F9                stc
000033A1  1000              adc [eax],al
000033A3  002500000012      add [dword 0x12000000],ah
000033A9  0001              add [ecx],al
000033AB  0000              add [eax],al
000033AD  6B65726E          imul esp,[ebp+0x72],byte +0x6e
000033B1  656C              gs insb
000033B3  2F                das
000033B4  6B65726E          imul esp,[ebp+0x72],byte +0x6e
000033B8  656C              gs insb
000033BA  5F                pop edi
000033BB  656E              gs outsb
000033BD  7472              jz 0x3431
000033BF  792E              jns 0x33ef
000033C1  61                popa
000033C2  736D              jnc 0x3431
000033C4  006B65            add [ebx+0x65],ch
000033C7  726E              jc 0x3437
000033C9  656C              gs insb
000033CB  2E6300            arpl [cs:eax],ax
000033CE  5F                pop edi
000033CF  47                inc edi
000033D0  4C                dec esp
000033D1  4F                dec edi
000033D2  42                inc edx
000033D3  41                inc ecx
000033D4  4C                dec esp
000033D5  5F                pop edi
000033D6  4F                dec edi
000033D7  46                inc esi
000033D8  46                inc esi
000033D9  53                push ebx
000033DA  45                inc ebp
000033DB  54                push esp
000033DC  5F                pop edi
000033DD  54                push esp
000033DE  41                inc ecx
000033DF  42                inc edx
000033E0  4C                dec esp
000033E1  45                inc ebp
000033E2  5F                pop edi
000033E3  005F5F            add [edi+0x5f],bl
000033E6  7374              jnc 0x345c
000033E8  61                popa
000033E9  636B5F            arpl [ebx+0x5f],bp
000033EC  63686B            arpl [eax+0x6b],bp
000033EF  5F                pop edi
000033F0  6661              popaw
000033F2  696C5F6C6F63616C  imul ebp,[edi+ebx*2+0x6c],dword 0x6c61636f
000033FA  007072            add [eax+0x72],dh
000033FD  696E7400707269    imul ebp,[esi+0x74],dword 0x69727000
00003404  6E                outsb
00003405  745F              jz 0x3466
00003407  636861            arpl [eax+0x61],bp
0000340A  7200              jc 0x340c
0000340C  5F                pop edi
0000340D  5F                pop edi
0000340E  7838              js 0x3448
00003410  362E6765745F      gs jz 0x3475
00003416  7063              jo 0x347b
00003418  5F                pop edi
00003419  7468              jz 0x3483
0000341B  756E              jnz 0x348b
0000341D  6B2E61            imul ebp,[esi],byte +0x61
00003420  7800              js 0x3422
00003422  7365              jnc 0x3489
00003424  745F              jz 0x3485
00003426  637572            arpl [ebp+0x72],si
00003429  736F              jnc 0x349a
0000342B  7200              jc 0x342d
0000342D  6765745F          gs jz 0x3490
00003431  637572            arpl [ebp+0x72],si
00003434  736F              jnc 0x34a5
00003436  7200              jc 0x3438
00003438  6D                insd
00003439  656D              gs insd
0000343B  6F                outsd
0000343C  7279              jc 0x34b7
0000343E  5F                pop edi
0000343F  636F70            arpl [edi+0x70],bp
00003442  7900              jns 0x3444
00003444  5F                pop edi
00003445  5F                pop edi
00003446  627373            bound esi,[ebx+0x73]
00003449  5F                pop edi
0000344A  7374              jnc 0x34c0
0000344C  61                popa
0000344D  7274              jc 0x34c3
0000344F  006D61            add [ebp+0x61],ch
00003452  696E00706F7274    imul ebp,[esi+0x0],dword 0x74726f70
00003459  5F                pop edi
0000345A  627974            bound edi,[ecx+0x74]
0000345D  655F              gs pop edi
0000345F  696E00706F7274    imul ebp,[esi+0x0],dword 0x74726f70
00003466  5F                pop edi
00003467  776F              ja 0x34d8
00003469  7264              jc 0x34cf
0000346B  5F                pop edi
0000346C  6F                outsd
0000346D  7574              jnz 0x34e3
0000346F  007072            add [eax+0x72],dh
00003472  696E745F617400    imul ebp,[esi+0x74],dword 0x74615f
00003479  68616E646C        push dword 0x6c646e61
0000347E  655F              gs pop edi
00003480  7363              jnc 0x34e5
00003482  726F              jc 0x34f3
00003484  6C                insb
00003485  6C                insb
00003486  696E6700706F72    imul ebp,[esi+0x67],dword 0x726f7000
0000348D  745F              jz 0x34ee
0000348F  627974            bound edi,[ecx+0x74]
00003492  655F              gs pop edi
00003494  6F                outsd
00003495  7574              jnz 0x350b
00003497  005F65            add [edi+0x65],bl
0000349A  6461              fs popa
0000349C  7461              jz 0x34ff
0000349E  005F65            add [edi+0x65],bl
000034A1  6E                outsb
000034A2  6400706F          add [fs:eax+0x6f],dh
000034A6  7274              jc 0x351c
000034A8  5F                pop edi
000034A9  776F              ja 0x351a
000034AB  7264              jc 0x3511
000034AD  5F                pop edi
000034AE  696E00636C6561    imul ebp,[esi+0x0],dword 0x61656c63
000034B5  725F              jc 0x3516
000034B7  7363              jnc 0x351c
000034B9  7265              jc 0x3520
000034BB  656E              gs outsb
000034BD  006765            add [edi+0x65],ah
000034C0  745F              jz 0x3521
000034C2  7363              jnc 0x3527
000034C4  7265              jc 0x352b
000034C6  656E              gs outsb
000034C8  5F                pop edi
000034C9  6F                outsd
000034CA  66667365          o16 jnc 0x3533
000034CE  7400              jz 0x34d0
000034D0  002E              add [esi],ch
000034D2  7379              jnc 0x354d
000034D4  6D                insd
000034D5  7461              jz 0x3538
000034D7  6200              bound eax,[eax]
000034D9  2E7374            cs jnc 0x3550
000034DC  7274              jc 0x3552
000034DE  61                popa
000034DF  6200              bound eax,[eax]
000034E1  2E7368            cs jnc 0x354c
000034E4  7374              jnc 0x355a
000034E6  7274              jc 0x355c
000034E8  61                popa
000034E9  6200              bound eax,[eax]
000034EB  2E7465            cs jz 0x3553
000034EE  7874              js 0x3564
000034F0  002E              add [esi],ch
000034F2  65685F667261      gs push dword 0x6172665f
000034F8  6D                insd
000034F9  65002E            add [gs:esi],ch
000034FC  676F              a16 outsd
000034FE  742E              jz 0x352e
00003500  706C              jo 0x356e
00003502  7400              jz 0x3504
00003504  2E636F6D          arpl [cs:edi+0x6d],bp
00003508  6D                insd
00003509  656E              gs outsb
0000350B  7400              jz 0x350d
0000350D  0000              add [eax],al
0000350F  0000              add [eax],al
00003511  0000              add [eax],al
00003513  0000              add [eax],al
00003515  0000              add [eax],al
00003517  0000              add [eax],al
00003519  0000              add [eax],al
0000351B  0000              add [eax],al
0000351D  0000              add [eax],al
0000351F  0000              add [eax],al
00003521  0000              add [eax],al
00003523  0000              add [eax],al
00003525  0000              add [eax],al
00003527  0000              add [eax],al
00003529  0000              add [eax],al
0000352B  0000              add [eax],al
0000352D  0000              add [eax],al
0000352F  0000              add [eax],al
00003531  0000              add [eax],al
00003533  0000              add [eax],al
00003535  0000              add [eax],al
00003537  001B              add [ebx],bl
00003539  0000              add [eax],al
0000353B  0001              add [ecx],al
0000353D  0000              add [eax],al
0000353F  0006              add [esi],al
00003541  0000              add [eax],al
00003543  0001              add [ecx],al
00003545  1000              adc [eax],al
00003547  0001              add [ecx],al
00003549  1000              adc [eax],al
0000354B  000D05000000      add [dword 0x5],cl
00003551  0000              add [eax],al
00003553  0000              add [eax],al
00003555  0000              add [eax],al
00003557  0001              add [ecx],al
00003559  0000              add [eax],al
0000355B  0000              add [eax],al
0000355D  0000              add [eax],al
0000355F  0021              add [ecx],ah
00003561  0000              add [eax],al
00003563  0001              add [ecx],al
00003565  0000              add [eax],al
00003567  0002              add [edx],al
00003569  0000              add [eax],al
0000356B  0000              add [eax],al
0000356D  2000              and [eax],al
0000356F  0000              add [eax],al
00003571  2000              and [eax],al
00003573  0018              add [eax],bl
00003575  0200              add al,[eax]
00003577  0000              add [eax],al
00003579  0000              add [eax],al
0000357B  0000              add [eax],al
0000357D  0000              add [eax],al
0000357F  000400            add [eax+eax],al
00003582  0000              add [eax],al
00003584  0000              add [eax],al
00003586  0000              add [eax],al
00003588  2B00              sub eax,[eax]
0000358A  0000              add [eax],al
0000358C  0100              add [eax],eax
0000358E  0000              add [eax],al
00003590  0300              add eax,[eax]
00003592  0000              add [eax],al
00003594  F4                hlt
00003595  3F                aas
00003596  0000              add [eax],al
00003598  F4                hlt
00003599  2F                das
0000359A  0000              add [eax],al
0000359C  0C00              or al,0x0
0000359E  0000              add [eax],al
000035A0  0000              add [eax],al
000035A2  0000              add [eax],al
000035A4  0000              add [eax],al
000035A6  0000              add [eax],al
000035A8  0400              add al,0x0
000035AA  0000              add [eax],al
000035AC  0400              add al,0x0
000035AE  0000              add [eax],al
000035B0  3400              xor al,0x0
000035B2  0000              add [eax],al
000035B4  0100              add [eax],eax
000035B6  0000              add [eax],al
000035B8  3000              xor [eax],al
000035BA  0000              add [eax],al
000035BC  0000              add [eax],al
000035BE  0000              add [eax],al
000035C0  0030              add [eax],dh
000035C2  0000              add [eax],al
000035C4  1B00              sbb eax,[eax]
000035C6  0000              add [eax],al
000035C8  0000              add [eax],al
000035CA  0000              add [eax],al
000035CC  0000              add [eax],al
000035CE  0000              add [eax],al
000035D0  0100              add [eax],eax
000035D2  0000              add [eax],al
000035D4  0100              add [eax],eax
000035D6  0000              add [eax],al
000035D8  0100              add [eax],eax
000035DA  0000              add [eax],al
000035DC  0200              add al,[eax]
000035DE  0000              add [eax],al
000035E0  0000              add [eax],al
000035E2  0000              add [eax],al
000035E4  0000              add [eax],al
000035E6  0000              add [eax],al
000035E8  1C30              sbb al,0x30
000035EA  0000              add [eax],al
000035EC  90                nop
000035ED  0100              add [eax],eax
000035EF  0006              add [esi],al
000035F1  0000              add [eax],al
000035F3  000500000004      add [dword 0x4000000],al
000035F9  0000              add [eax],al
000035FB  0010              add [eax],dl
000035FD  0000              add [eax],al
000035FF  0009              add [ecx],cl
00003601  0000              add [eax],al
00003603  0003              add [ebx],al
00003605  0000              add [eax],al
00003607  0000              add [eax],al
00003609  0000              add [eax],al
0000360B  0000              add [eax],al
0000360D  0000              add [eax],al
0000360F  00AC3100002401    add [ecx+esi+0x1240000],ch
00003616  0000              add [eax],al
00003618  0000              add [eax],al
0000361A  0000              add [eax],al
0000361C  0000              add [eax],al
0000361E  0000              add [eax],al
00003620  0100              add [eax],eax
00003622  0000              add [eax],al
00003624  0000              add [eax],al
00003626  0000              add [eax],al
00003628  1100              adc [eax],eax
0000362A  0000              add [eax],al
0000362C  0300              add eax,[eax]
0000362E  0000              add [eax],al
00003630  0000              add [eax],al
00003632  0000              add [eax],al
00003634  0000              add [eax],al
00003636  0000              add [eax],al
00003638  D0                db 0xd0
00003639  3200              xor al,[eax]
0000363B  003D00000000      add [dword 0x0],bh
00003641  0000              add [eax],al
00003643  0000              add [eax],al
00003645  0000              add [eax],al
00003647  0001              add [ecx],al
00003649  0000              add [eax],al
0000364B  0000              add [eax],al
0000364D  0000              add [eax],al
0000364F  00                db 0x00
